
bblinking_pin.elf:     file format elf32-littlearm


Disassembly of section .boot2:

10000000 <__boot2_start__>:
__boot2_start__():
10000000:	4b32b500 	.word	0x4b32b500
10000004:	60582021 	.word	0x60582021
10000008:	21026898 	.word	0x21026898
1000000c:	60984388 	.word	0x60984388
10000010:	611860d8 	.word	0x611860d8
10000014:	4b2e6158 	.word	0x4b2e6158
10000018:	60992100 	.word	0x60992100
1000001c:	61592104 	.word	0x61592104
10000020:	22f02101 	.word	0x22f02101
10000024:	492b5099 	.word	0x492b5099
10000028:	21016019 	.word	0x21016019
1000002c:	20356099 	.word	0x20356099
10000030:	f844f000 	.word	0xf844f000
10000034:	42902202 	.word	0x42902202
10000038:	2106d014 	.word	0x2106d014
1000003c:	f0006619 	.word	0xf0006619
10000040:	6e19f834 	.word	0x6e19f834
10000044:	66192101 	.word	0x66192101
10000048:	66182000 	.word	0x66182000
1000004c:	f000661a 	.word	0xf000661a
10000050:	6e19f82c 	.word	0x6e19f82c
10000054:	6e196e19 	.word	0x6e196e19
10000058:	f0002005 	.word	0xf0002005
1000005c:	2101f82f 	.word	0x2101f82f
10000060:	d1f94208 	.word	0xd1f94208
10000064:	60992100 	.word	0x60992100
10000068:	6019491b 	.word	0x6019491b
1000006c:	60592100 	.word	0x60592100
10000070:	481b491a 	.word	0x481b491a
10000074:	21016001 	.word	0x21016001
10000078:	21eb6099 	.word	0x21eb6099
1000007c:	21a06619 	.word	0x21a06619
10000080:	f0006619 	.word	0xf0006619
10000084:	2100f812 	.word	0x2100f812
10000088:	49166099 	.word	0x49166099
1000008c:	60014814 	.word	0x60014814
10000090:	60992101 	.word	0x60992101
10000094:	2800bc01 	.word	0x2800bc01
10000098:	4700d000 	.word	0x4700d000
1000009c:	49134812 	.word	0x49134812
100000a0:	c8036008 	.word	0xc8036008
100000a4:	8808f380 	.word	0x8808f380
100000a8:	b5034708 	.word	0xb5034708
100000ac:	20046a99 	.word	0x20046a99
100000b0:	d0fb4201 	.word	0xd0fb4201
100000b4:	42012001 	.word	0x42012001
100000b8:	bd03d1f8 	.word	0xbd03d1f8
100000bc:	6618b502 	.word	0x6618b502
100000c0:	f7ff6618 	.word	0xf7ff6618
100000c4:	6e18fff2 	.word	0x6e18fff2
100000c8:	bd026e18 	.word	0xbd026e18
100000cc:	40020000 	.word	0x40020000
100000d0:	18000000 	.word	0x18000000
100000d4:	00070000 	.word	0x00070000
100000d8:	005f0300 	.word	0x005f0300
100000dc:	00002221 	.word	0x00002221
100000e0:	180000f4 	.word	0x180000f4
100000e4:	a0002022 	.word	0xa0002022
100000e8:	10000100 	.word	0x10000100
100000ec:	e000ed08 	.word	0xe000ed08
	...
100000fc:	d58f0b07 	.word	0xd58f0b07

Disassembly of section .text:

10000100 <__VECTOR_TABLE>:
__logical_binary_start():
10000100:	20042000 	.word	0x20042000
10000104:	100001f7 	.word	0x100001f7
10000108:	100001cb 	.word	0x100001cb
1000010c:	100001cd 	.word	0x100001cd
10000110:	100001c9 	.word	0x100001c9
10000114:	100001c9 	.word	0x100001c9
10000118:	100001c9 	.word	0x100001c9
1000011c:	100001c9 	.word	0x100001c9
10000120:	100001c9 	.word	0x100001c9
10000124:	100001c9 	.word	0x100001c9
10000128:	100001c9 	.word	0x100001c9
1000012c:	100001cf 	.word	0x100001cf
10000130:	100001c9 	.word	0x100001c9
10000134:	100001c9 	.word	0x100001c9
10000138:	100001d1 	.word	0x100001d1
1000013c:	100001d3 	.word	0x100001d3
10000140:	100001c1 	.word	0x100001c1
10000144:	100001c1 	.word	0x100001c1
10000148:	100001c1 	.word	0x100001c1
1000014c:	100001c1 	.word	0x100001c1
10000150:	100001c1 	.word	0x100001c1
10000154:	100001c1 	.word	0x100001c1
10000158:	100001c1 	.word	0x100001c1
1000015c:	100001c1 	.word	0x100001c1
10000160:	100001c1 	.word	0x100001c1
10000164:	100001c1 	.word	0x100001c1
10000168:	100001c1 	.word	0x100001c1
1000016c:	100001c1 	.word	0x100001c1
10000170:	100001c1 	.word	0x100001c1
10000174:	100001c1 	.word	0x100001c1
10000178:	100001c1 	.word	0x100001c1
1000017c:	100001c1 	.word	0x100001c1
10000180:	100001c1 	.word	0x100001c1
10000184:	100001c1 	.word	0x100001c1
10000188:	100001c1 	.word	0x100001c1
1000018c:	100001c1 	.word	0x100001c1
10000190:	100001c1 	.word	0x100001c1
10000194:	100001c1 	.word	0x100001c1
10000198:	100001c1 	.word	0x100001c1
1000019c:	100001c1 	.word	0x100001c1
100001a0:	100001c1 	.word	0x100001c1
100001a4:	100001c1 	.word	0x100001c1
100001a8:	100001c1 	.word	0x100001c1
100001ac:	100001c1 	.word	0x100001c1
100001b0:	100001c1 	.word	0x100001c1
100001b4:	100001c1 	.word	0x100001c1
100001b8:	100001c1 	.word	0x100001c1
100001bc:	100001c1 	.word	0x100001c1

100001c0 <__unhandled_user_irq>:
isr_irq30():
/usr/local/share/pico/pico-sdk/src/rp2_common/pico_crt0/crt0.S:320
.global __unhandled_user_irq
.thumb_func
__unhandled_user_irq:
// if we include the implementation if there could be a valid IRQ hanler in the vtable that uses it
#if !(PICO_NO_RAM_VECTOR_TABLE && PICO_MINIMAL_STORED_VECTOR_TABLE)
    mrs  r0, ipsr
100001c0:	f3ef 8005 	mrs	r0, IPSR
/usr/local/share/pico/pico-sdk/src/rp2_common/pico_crt0/crt0.S:321
    subs r0, #16
100001c4:	3810      	subs	r0, #16

100001c6 <unhandled_user_irq_num_in_r0>:
unhandled_user_irq_num_in_r0():
/usr/local/share/pico/pico-sdk/src/rp2_common/pico_crt0/crt0.S:327
.global unhandled_user_irq_num_in_r0
unhandled_user_irq_num_in_r0:
#endif
    // note the next instruction is a breakpoint too, however we have a 2 byte alignment hole
    // and it is preferrable to have distinct labels, to inform the user what has happened in the debugger.
    bkpt #0
100001c6:	be00      	bkpt	0x0000

100001c8 <isr_invalid>:
isr_invalid():
/usr/local/share/pico/pico-sdk/src/rp2_common/pico_crt0/crt0.S:329

decl_isr_bkpt isr_invalid
100001c8:	be00      	bkpt	0x0000

100001ca <isr_nmi>:
isr_nmi():
/usr/local/share/pico/pico-sdk/src/rp2_common/pico_crt0/crt0.S:332
#if !PICO_MINIMAL_STORED_VECTOR_TABLE
// these are separated out into individual BKPT instructions with label for clarity
decl_isr_bkpt isr_nmi
100001ca:	be00      	bkpt	0x0000

100001cc <isr_hardfault>:
isr_hardfault():
/usr/local/share/pico/pico-sdk/src/rp2_common/pico_crt0/crt0.S:333
decl_isr_bkpt isr_hardfault
100001cc:	be00      	bkpt	0x0000

100001ce <isr_svcall>:
isr_svcall():
/usr/local/share/pico/pico-sdk/src/rp2_common/pico_crt0/crt0.S:334
decl_isr_bkpt isr_svcall
100001ce:	be00      	bkpt	0x0000

100001d0 <isr_pendsv>:
isr_pendsv():
/usr/local/share/pico/pico-sdk/src/rp2_common/pico_crt0/crt0.S:335
decl_isr_bkpt isr_pendsv
100001d0:	be00      	bkpt	0x0000

100001d2 <isr_systick>:
isr_systick():
/usr/local/share/pico/pico-sdk/src/rp2_common/pico_crt0/crt0.S:336
decl_isr_bkpt isr_systick
100001d2:	be00      	bkpt	0x0000

100001d4 <__default_isrs_end>:
binary_info_header():
100001d4:	7188ebf2 	.word	0x7188ebf2
100001d8:	100017cc 	.word	0x100017cc
100001dc:	100017ec 	.word	0x100017ec
100001e0:	10000238 	.word	0x10000238
100001e4:	e71aa390 	.word	0xe71aa390

100001e8 <_entry_point>:
__embedded_block_end():
/usr/local/share/pico/pico-sdk/src/rp2_common/pico_crt0/crt0.S:420
    // Vector through our own table (SP, VTOR will not have been set up at
    // this point). Same path for debugger entry and bootloader entry.
#else
    // Debugger tried to run code after loading, so SSI is in 03h-only mode.
    // Go back through bootrom + boot2 to properly initialise flash.
    ldr r0, =BOOTROM_VTABLE_OFFSET
100001e8:	481e      	ldr	r0, [pc, #120]	@ (10000264 <data_cpy_table+0x2c>)

100001ea <_enter_vtable_in_r0>:
_enter_vtable_in_r0():
/usr/local/share/pico/pico-sdk/src/rp2_common/pico_crt0/crt0.S:424
#endif

_enter_vtable_in_r0:
    ldr r1, =(PPB_BASE + ARM_CPU_PREFIXED(VTOR_OFFSET))
100001ea:	491f      	ldr	r1, [pc, #124]	@ (10000268 <data_cpy_table+0x30>)
/usr/local/share/pico/pico-sdk/src/rp2_common/pico_crt0/crt0.S:425
    str r0, [r1]
100001ec:	6008      	str	r0, [r1, #0]
/usr/local/share/pico/pico-sdk/src/rp2_common/pico_crt0/crt0.S:426
    ldmia r0!, {r1, r2}
100001ee:	c806      	ldmia	r0!, {r1, r2}
/usr/local/share/pico/pico-sdk/src/rp2_common/pico_crt0/crt0.S:427
    msr msp, r1
100001f0:	f381 8808 	msr	MSP, r1
/usr/local/share/pico/pico-sdk/src/rp2_common/pico_crt0/crt0.S:428
    bx r2
100001f4:	4710      	bx	r2

100001f6 <_reset_handler>:
_reset_handler():
/usr/local/share/pico/pico-sdk/src/rp2_common/pico_crt0/crt0.S:446
    // should already be set

    // Only core 0 should run the C runtime startup code; core 1 is normally
    // sleeping in the bootrom at this point but check to be sure (e.g. if
    // debugger put core 1 at the ELF entry point for some reason)
    ldr r0, =(SIO_BASE + SIO_CPUID_OFFSET)
100001f6:	481d      	ldr	r0, [pc, #116]	@ (1000026c <data_cpy_table+0x34>)
/usr/local/share/pico/pico-sdk/src/rp2_common/pico_crt0/crt0.S:447
    ldr r0, [r0]
100001f8:	6800      	ldr	r0, [r0, #0]
/usr/local/share/pico/pico-sdk/src/rp2_common/pico_crt0/crt0.S:449
#if __ARM_ARCH_6M__
    cmp r0, #0
100001fa:	2800      	cmp	r0, #0
/usr/local/share/pico/pico-sdk/src/rp2_common/pico_crt0/crt0.S:450
    beq 1f
100001fc:	d001      	beq.n	10000202 <hold_non_core0_in_bootrom+0x4>

100001fe <hold_non_core0_in_bootrom>:
hold_non_core0_in_bootrom():
/usr/local/share/pico/pico-sdk/src/rp2_common/pico_crt0/crt0.S:456
#else
    cbz r0, 1f
#endif
hold_non_core0_in_bootrom:
    // Send back to the ROM to wait for core 0 to launch it.
    ldr r0, =BOOTROM_VTABLE_OFFSET
100001fe:	4819      	ldr	r0, [pc, #100]	@ (10000264 <data_cpy_table+0x2c>)
/usr/local/share/pico/pico-sdk/src/rp2_common/pico_crt0/crt0.S:457
    b _enter_vtable_in_r0
10000200:	e7f3      	b.n	100001ea <_enter_vtable_in_r0>
/usr/local/share/pico/pico-sdk/src/rp2_common/pico_crt0/crt0.S:481
#endif

    // In a NO_FLASH binary, don't perform .data etc copy, since it's loaded
    // in-place by the SRAM load. Still need to clear .bss
#if !PICO_NO_FLASH
    adr r4, data_cpy_table
10000202:	a40d      	add	r4, pc, #52	@ (adr r4, 10000238 <data_cpy_table>)
/usr/local/share/pico/pico-sdk/src/rp2_common/pico_crt0/crt0.S:485

    // assume there is at least one entry
1:
    ldmia r4!, {r1-r3}
10000204:	cc0e      	ldmia	r4!, {r1, r2, r3}
/usr/local/share/pico/pico-sdk/src/rp2_common/pico_crt0/crt0.S:486
    cmp r1, #0
10000206:	2900      	cmp	r1, #0
/usr/local/share/pico/pico-sdk/src/rp2_common/pico_crt0/crt0.S:487
    beq 2f
10000208:	d002      	beq.n	10000210 <hold_non_core0_in_bootrom+0x12>
/usr/local/share/pico/pico-sdk/src/rp2_common/pico_crt0/crt0.S:488
    bl data_cpy
1000020a:	f000 f812 	bl	10000232 <data_cpy>
/usr/local/share/pico/pico-sdk/src/rp2_common/pico_crt0/crt0.S:489
    b 1b
1000020e:	e7f9      	b.n	10000204 <hold_non_core0_in_bootrom+0x6>
/usr/local/share/pico/pico-sdk/src/rp2_common/pico_crt0/crt0.S:494
2:
#endif

    // Zero out the BSS
    ldr r1, =__bss_start__
10000210:	4917      	ldr	r1, [pc, #92]	@ (10000270 <data_cpy_table+0x38>)
/usr/local/share/pico/pico-sdk/src/rp2_common/pico_crt0/crt0.S:495
    ldr r2, =__bss_end__
10000212:	4a18      	ldr	r2, [pc, #96]	@ (10000274 <data_cpy_table+0x3c>)
/usr/local/share/pico/pico-sdk/src/rp2_common/pico_crt0/crt0.S:496
    movs r0, #0
10000214:	2000      	movs	r0, #0
/usr/local/share/pico/pico-sdk/src/rp2_common/pico_crt0/crt0.S:497
    b bss_fill_test
10000216:	e000      	b.n	1000021a <bss_fill_test>

10000218 <bss_fill_loop>:
bss_fill_loop():
/usr/local/share/pico/pico-sdk/src/rp2_common/pico_crt0/crt0.S:499
bss_fill_loop:
    stm r1!, {r0}
10000218:	c101      	stmia	r1!, {r0}

1000021a <bss_fill_test>:
bss_fill_test():
/usr/local/share/pico/pico-sdk/src/rp2_common/pico_crt0/crt0.S:501
bss_fill_test:
    cmp r1, r2
1000021a:	4291      	cmp	r1, r2
/usr/local/share/pico/pico-sdk/src/rp2_common/pico_crt0/crt0.S:502
    bne bss_fill_loop
1000021c:	d1fc      	bne.n	10000218 <bss_fill_loop>

1000021e <platform_entry>:
platform_entry():
/usr/local/share/pico/pico-sdk/src/rp2_common/pico_crt0/crt0.S:512
    bl main
    bl exit
#else
    // Use 32-bit jumps, in case these symbols are moved out of branch range
    // (e.g. if main is in SRAM and crt0 in flash)
    ldr r1, =runtime_init
1000021e:	4916      	ldr	r1, [pc, #88]	@ (10000278 <data_cpy_table+0x40>)
/usr/local/share/pico/pico-sdk/src/rp2_common/pico_crt0/crt0.S:513
    blx r1
10000220:	4788      	blx	r1
/usr/local/share/pico/pico-sdk/src/rp2_common/pico_crt0/crt0.S:514
    ldr r1, =main
10000222:	4916      	ldr	r1, [pc, #88]	@ (1000027c <data_cpy_table+0x44>)
/usr/local/share/pico/pico-sdk/src/rp2_common/pico_crt0/crt0.S:515
    blx r1
10000224:	4788      	blx	r1
/usr/local/share/pico/pico-sdk/src/rp2_common/pico_crt0/crt0.S:516
    ldr r1, =exit
10000226:	4916      	ldr	r1, [pc, #88]	@ (10000280 <data_cpy_table+0x48>)
/usr/local/share/pico/pico-sdk/src/rp2_common/pico_crt0/crt0.S:517
    blx r1
10000228:	4788      	blx	r1
/usr/local/share/pico/pico-sdk/src/rp2_common/pico_crt0/crt0.S:521
#endif
    // exit should not return.  If it does, hang the core.
1: // separate label because _exit can be moved out of branch range
    bkpt #0
1000022a:	be00      	bkpt	0x0000
/usr/local/share/pico/pico-sdk/src/rp2_common/pico_crt0/crt0.S:522
    b 1b
1000022c:	e7fd      	b.n	1000022a <platform_entry+0xc>

1000022e <data_cpy_loop>:
data_cpy_loop():
/usr/local/share/pico/pico-sdk/src/rp2_common/pico_crt0/crt0.S:527


#if !PICO_NO_FLASH
data_cpy_loop:
    ldm r1!, {r0}
1000022e:	c901      	ldmia	r1!, {r0}
/usr/local/share/pico/pico-sdk/src/rp2_common/pico_crt0/crt0.S:528
    stm r2!, {r0}
10000230:	c201      	stmia	r2!, {r0}

10000232 <data_cpy>:
data_cpy():
/usr/local/share/pico/pico-sdk/src/rp2_common/pico_crt0/crt0.S:530
data_cpy:
    cmp r2, r3
10000232:	429a      	cmp	r2, r3
/usr/local/share/pico/pico-sdk/src/rp2_common/pico_crt0/crt0.S:531
    blo data_cpy_loop
10000234:	d3fb      	bcc.n	1000022e <data_cpy_loop>
/usr/local/share/pico/pico-sdk/src/rp2_common/pico_crt0/crt0.S:532
    bx lr
10000236:	4770      	bx	lr

10000238 <data_cpy_table>:
data_cpy_table():
/usr/local/share/pico/pico-sdk/src/rp2_common/pico_crt0/crt0.S:532
10000238:	100017ec 	.word	0x100017ec
1000023c:	200000c0 	.word	0x200000c0
10000240:	200001e8 	.word	0x200001e8
10000244:	10001914 	.word	0x10001914
10000248:	20040000 	.word	0x20040000
1000024c:	20040000 	.word	0x20040000
10000250:	10001914 	.word	0x10001914
10000254:	20041000 	.word	0x20041000
10000258:	20041000 	.word	0x20041000
1000025c:	00000000 	.word	0x00000000
/usr/local/share/pico/pico-sdk/src/rp2_common/pico_crt0/crt0.S:573

.weak runtime_init
.type runtime_init,%function
.thumb_func
runtime_init:
    bx lr
10000260:	4770      	bx	lr
10000262:	0000      	.short	0x0000
/usr/local/share/pico/pico-sdk/src/rp2_common/pico_crt0/crt0.S:420
    ldr r0, =BOOTROM_VTABLE_OFFSET
10000264:	00000000 	.word	0x00000000
/usr/local/share/pico/pico-sdk/src/rp2_common/pico_crt0/crt0.S:424
    ldr r1, =(PPB_BASE + ARM_CPU_PREFIXED(VTOR_OFFSET))
10000268:	e000ed08 	.word	0xe000ed08
/usr/local/share/pico/pico-sdk/src/rp2_common/pico_crt0/crt0.S:446
    ldr r0, =(SIO_BASE + SIO_CPUID_OFFSET)
1000026c:	d0000000 	.word	0xd0000000
/usr/local/share/pico/pico-sdk/src/rp2_common/pico_crt0/crt0.S:494
    ldr r1, =__bss_start__
10000270:	200001e8 	.word	0x200001e8
/usr/local/share/pico/pico-sdk/src/rp2_common/pico_crt0/crt0.S:495
    ldr r2, =__bss_end__
10000274:	200005d4 	.word	0x200005d4
/usr/local/share/pico/pico-sdk/src/rp2_common/pico_crt0/crt0.S:512
    ldr r1, =runtime_init
10000278:	1000132d 	.word	0x1000132d
/usr/local/share/pico/pico-sdk/src/rp2_common/pico_crt0/crt0.S:514
    ldr r1, =main
1000027c:	10000321 	.word	0x10000321
/usr/local/share/pico/pico-sdk/src/rp2_common/pico_crt0/crt0.S:516
    ldr r1, =exit
10000280:	10001325 	.word	0x10001325

10000284 <_init>:
_init():
10000284:	b5f8      	push	{r3, r4, r5, r6, r7, lr}
10000286:	46c0      	nop			@ (mov r8, r8)

10000288 <deregister_tm_clones>:
deregister_tm_clones():
10000288:	4804      	ldr	r0, [pc, #16]	@ (1000029c <deregister_tm_clones+0x14>)
1000028a:	4b05      	ldr	r3, [pc, #20]	@ (100002a0 <deregister_tm_clones+0x18>)
1000028c:	b510      	push	{r4, lr}
1000028e:	4283      	cmp	r3, r0
10000290:	d003      	beq.n	1000029a <deregister_tm_clones+0x12>
10000292:	4b04      	ldr	r3, [pc, #16]	@ (100002a4 <deregister_tm_clones+0x1c>)
10000294:	2b00      	cmp	r3, #0
10000296:	d000      	beq.n	1000029a <deregister_tm_clones+0x12>
10000298:	4798      	blx	r3
1000029a:	bd10      	pop	{r4, pc}
1000029c:	200001e8 	.word	0x200001e8
100002a0:	200001e8 	.word	0x200001e8
100002a4:	00000000 	.word	0x00000000

100002a8 <register_tm_clones>:
register_tm_clones():
100002a8:	4806      	ldr	r0, [pc, #24]	@ (100002c4 <register_tm_clones+0x1c>)
100002aa:	4907      	ldr	r1, [pc, #28]	@ (100002c8 <register_tm_clones+0x20>)
100002ac:	1a09      	subs	r1, r1, r0
100002ae:	108b      	asrs	r3, r1, #2
100002b0:	0fc9      	lsrs	r1, r1, #31
100002b2:	18c9      	adds	r1, r1, r3
100002b4:	b510      	push	{r4, lr}
100002b6:	1049      	asrs	r1, r1, #1
100002b8:	d003      	beq.n	100002c2 <register_tm_clones+0x1a>
100002ba:	4b04      	ldr	r3, [pc, #16]	@ (100002cc <register_tm_clones+0x24>)
100002bc:	2b00      	cmp	r3, #0
100002be:	d000      	beq.n	100002c2 <register_tm_clones+0x1a>
100002c0:	4798      	blx	r3
100002c2:	bd10      	pop	{r4, pc}
100002c4:	200001e8 	.word	0x200001e8
100002c8:	200001e8 	.word	0x200001e8
100002cc:	00000000 	.word	0x00000000

100002d0 <__do_global_dtors_aux>:
__do_global_dtors_aux():
100002d0:	b510      	push	{r4, lr}
100002d2:	4c07      	ldr	r4, [pc, #28]	@ (100002f0 <__do_global_dtors_aux+0x20>)
100002d4:	7823      	ldrb	r3, [r4, #0]
100002d6:	2b00      	cmp	r3, #0
100002d8:	d109      	bne.n	100002ee <__do_global_dtors_aux+0x1e>
100002da:	f7ff ffd5 	bl	10000288 <deregister_tm_clones>
100002de:	4b05      	ldr	r3, [pc, #20]	@ (100002f4 <__do_global_dtors_aux+0x24>)
100002e0:	2b00      	cmp	r3, #0
100002e2:	d002      	beq.n	100002ea <__do_global_dtors_aux+0x1a>
100002e4:	4804      	ldr	r0, [pc, #16]	@ (100002f8 <__do_global_dtors_aux+0x28>)
100002e6:	e000      	b.n	100002ea <__do_global_dtors_aux+0x1a>
100002e8:	bf00      	nop
100002ea:	2301      	movs	r3, #1
100002ec:	7023      	strb	r3, [r4, #0]
100002ee:	bd10      	pop	{r4, pc}
100002f0:	20000568 	.word	0x20000568
100002f4:	00000000 	.word	0x00000000
100002f8:	100016d8 	.word	0x100016d8

100002fc <frame_dummy>:
frame_dummy():
100002fc:	4b05      	ldr	r3, [pc, #20]	@ (10000314 <frame_dummy+0x18>)
100002fe:	b510      	push	{r4, lr}
10000300:	2b00      	cmp	r3, #0
10000302:	d003      	beq.n	1000030c <frame_dummy+0x10>
10000304:	4904      	ldr	r1, [pc, #16]	@ (10000318 <frame_dummy+0x1c>)
10000306:	4805      	ldr	r0, [pc, #20]	@ (1000031c <frame_dummy+0x20>)
10000308:	e000      	b.n	1000030c <frame_dummy+0x10>
1000030a:	bf00      	nop
1000030c:	f7ff ffcc 	bl	100002a8 <register_tm_clones>
10000310:	bd10      	pop	{r4, pc}
10000312:	46c0      	nop			@ (mov r8, r8)
10000314:	00000000 	.word	0x00000000
10000318:	2000056c 	.word	0x2000056c
1000031c:	100016d8 	.word	0x100016d8

10000320 <main>:
main():
/home/s3pi/Desktop/blinktest/bblinking_pin.c:5
#include "pico/stdlib.h"

#define LED_PIN 8

int main() {
10000320:	b510      	push	{r4, lr}
/home/s3pi/Desktop/blinktest/bblinking_pin.c:7
    // Initialize the standard IO (optional, only needed if you want USB serial output)
    stdio_init_all();
10000322:	f001 f8ff 	bl	10001524 <stdio_init_all>
/home/s3pi/Desktop/blinktest/bblinking_pin.c:10

    // Initialize the GPIO
    gpio_init(LED_PIN);
10000326:	2008      	movs	r0, #8
10000328:	f000 f808 	bl	1000033c <gpio_init>
gpio_set_dir_out_masked():
/usr/local/share/pico/pico-sdk/src/rp2_common/hardware_gpio/include/hardware/gpio.h:1222
 */
static inline void gpio_set_dir_out_masked(uint32_t mask) {
#if PICO_USE_GPIO_COPROCESSOR
    gpioc_lo_oe_set(mask);
#else
    sio_hw->gpio_oe_set = mask;
1000032c:	23d0      	movs	r3, #208	@ 0xd0
1000032e:	2280      	movs	r2, #128	@ 0x80
10000330:	061b      	lsls	r3, r3, #24
10000332:	0052      	lsls	r2, r2, #1
10000334:	625a      	str	r2, [r3, #36]	@ 0x24
gpio_set_mask():
/usr/local/share/pico/pico-sdk/src/rp2_common/hardware_gpio/include/hardware/gpio.h:922 (discriminator 1)
    sio_hw->gpio_set = mask;
10000336:	615a      	str	r2, [r3, #20]
gpio_clr_mask():
/usr/local/share/pico/pico-sdk/src/rp2_common/hardware_gpio/include/hardware/gpio.h:969 (discriminator 1)
    sio_hw->gpio_clr = mask;
10000338:	619a      	str	r2, [r3, #24]
1000033a:	e7fc      	b.n	10000336 <main+0x16>

1000033c <gpio_init>:
gpio_set_dir():
/usr/local/share/pico/pico-sdk/src/rp2_common/hardware_gpio/include/hardware/gpio.h:1354
 */
static inline void gpio_set_dir(uint gpio, bool out) {
#if PICO_USE_GPIO_COPROCESSOR
    gpioc_bit_oe_put(gpio, out);
#elif PICO_RP2040 || NUM_BANK0_GPIOS <= 32
    uint32_t mask = 1ul << gpio;
1000033c:	2301      	movs	r3, #1
gpio_set_dir_in_masked():
/usr/local/share/pico/pico-sdk/src/rp2_common/hardware_gpio/include/hardware/gpio.h:1253
    sio_hw->gpio_oe_clr = mask;
1000033e:	22d0      	movs	r2, #208	@ 0xd0
gpio_set_dir():
/usr/local/share/pico/pico-sdk/src/rp2_common/hardware_gpio/include/hardware/gpio.h:1354
    uint32_t mask = 1ul << gpio;
10000340:	4083      	lsls	r3, r0
gpio_set_dir_in_masked():
/usr/local/share/pico/pico-sdk/src/rp2_common/hardware_gpio/include/hardware/gpio.h:1253
    sio_hw->gpio_oe_clr = mask;
10000342:	0612      	lsls	r2, r2, #24
10000344:	6293      	str	r3, [r2, #40]	@ 0x28
gpio_clr_mask():
/usr/local/share/pico/pico-sdk/src/rp2_common/hardware_gpio/include/hardware/gpio.h:969
    sio_hw->gpio_clr = mask;
10000346:	6193      	str	r3, [r2, #24]
gpio_set_function():
/usr/local/share/pico/pico-sdk/src/rp2_common/hardware_gpio/gpio.c:42
// This also clears the input/output/irq override bits.
void gpio_set_function(uint gpio, gpio_function_t fn) {
    check_gpio_param(gpio);
    invalid_params_if(HARDWARE_GPIO, ((uint32_t)fn << IO_BANK0_GPIO0_CTRL_FUNCSEL_LSB) & ~IO_BANK0_GPIO0_CTRL_FUNCSEL_BITS);
    // Set input enable on, output disable off
    hw_write_masked(&pads_bank0_hw->io[gpio],
10000348:	4a09      	ldr	r2, [pc, #36]	@ (10000370 <gpio_init+0x34>)
1000034a:	0083      	lsls	r3, r0, #2
1000034c:	189a      	adds	r2, r3, r2
hw_write_masked():
/usr/local/share/pico/pico-sdk/src/rp2_common/hardware_base/include/hardware/address_mapped.h:172
 * \param addr Address of writable register
 * \param values Bits values
 * \param write_mask Mask of bits to change
 */
__force_inline static void hw_write_masked(io_rw_32 *addr, uint32_t values, uint32_t write_mask) {
    hw_xor_bits(addr, (*addr ^ values) & write_mask);
1000034e:	6811      	ldr	r1, [r2, #0]
10000350:	2240      	movs	r2, #64	@ 0x40
10000352:	4051      	eors	r1, r2
10000354:	3280      	adds	r2, #128	@ 0x80
10000356:	400a      	ands	r2, r1
hw_xor_bits():
/usr/local/share/pico/pico-sdk/src/rp2_common/hardware_base/include/hardware/address_mapped.h:156
    *(io_rw_32 *) hw_xor_alias_untyped((volatile void *) addr) = mask;
10000358:	4906      	ldr	r1, [pc, #24]	@ (10000374 <gpio_init+0x38>)
gpio_set_function():
/usr/local/share/pico/pico-sdk/src/rp2_common/hardware_gpio/gpio.c:48
                   PADS_BANK0_GPIO0_IE_BITS,
                   PADS_BANK0_GPIO0_IE_BITS | PADS_BANK0_GPIO0_OD_BITS
    );
    // Zero all fields apart from fsel; we want this IO to do what the peripheral tells it.
    // This doesn't affect e.g. pullup/pulldown, as these are in pad controls.
    io_bank0_hw->io[gpio].ctrl = fn << IO_BANK0_GPIO0_CTRL_FUNCSEL_LSB;
1000035a:	00c0      	lsls	r0, r0, #3
hw_xor_bits():
/usr/local/share/pico/pico-sdk/src/rp2_common/hardware_base/include/hardware/address_mapped.h:156
1000035c:	468c      	mov	ip, r1
1000035e:	4463      	add	r3, ip
10000360:	601a      	str	r2, [r3, #0]
gpio_set_function():
/usr/local/share/pico/pico-sdk/src/rp2_common/hardware_gpio/gpio.c:48
10000362:	4b05      	ldr	r3, [pc, #20]	@ (10000378 <gpio_init+0x3c>)
10000364:	469c      	mov	ip, r3
10000366:	2305      	movs	r3, #5
10000368:	4460      	add	r0, ip
1000036a:	6043      	str	r3, [r0, #4]
gpio_init():
/usr/local/share/pico/pico-sdk/src/rp2_common/hardware_gpio/gpio.c:277

void gpio_init(uint gpio) {
    gpio_set_dir(gpio, GPIO_IN);
    gpio_put(gpio, 0);
    gpio_set_function(gpio, GPIO_FUNC_SIO);
}
1000036c:	4770      	bx	lr
1000036e:	46c0      	nop			@ (mov r8, r8)
10000370:	4001c004 	.word	0x4001c004
10000374:	4001d004 	.word	0x4001d004
10000378:	40014000 	.word	0x40014000

1000037c <panic>:
panic():
/usr/local/share/pico/pico-sdk/src/rp2_common/pico_platform_panic/panic.c:64
// todo consider making this try harder to output if we panic early
//  right now, print mutex may be uninitialised (in which case it deadlocks - although after printing "PANIC")
//  more importantly there may be no stdout/UART initialized yet
// todo we may want to think about where we print panic messages to; writing to USB appears to work
//  though it doesn't seem like we can expect it to... fine for now
void __attribute__((noreturn)) __printflike(1, 0) panic(const char *fmt, ...) {
1000037c:	b40f      	push	{r0, r1, r2, r3}
1000037e:	b500      	push	{lr}
/usr/local/share/pico/pico-sdk/src/rp2_common/pico_platform_panic/panic.c:65
    puts("\n*** PANIC ***\n");
10000380:	4808      	ldr	r0, [pc, #32]	@ (100003a4 <panic+0x28>)
/usr/local/share/pico/pico-sdk/src/rp2_common/pico_platform_panic/panic.c:64
void __attribute__((noreturn)) __printflike(1, 0) panic(const char *fmt, ...) {
10000382:	b083      	sub	sp, #12
/usr/local/share/pico/pico-sdk/src/rp2_common/pico_platform_panic/panic.c:65
    puts("\n*** PANIC ***\n");
10000384:	f001 f920 	bl	100015c8 <__wrap_puts>
/usr/local/share/pico/pico-sdk/src/rp2_common/pico_platform_panic/panic.c:66
    if (fmt) {
10000388:	9b04      	ldr	r3, [sp, #16]
1000038a:	2b00      	cmp	r3, #0
1000038c:	d007      	beq.n	1000039e <panic+0x22>
/usr/local/share/pico/pico-sdk/src/rp2_common/pico_platform_panic/panic.c:71
#if LIB_PICO_PRINTF_NONE
        puts(fmt);
#else
        va_list args;
        va_start(args, fmt);
1000038e:	a905      	add	r1, sp, #20
/usr/local/share/pico/pico-sdk/src/rp2_common/pico_platform_panic/panic.c:75
#if PICO_PRINTF_ALWAYS_INCLUDED
        vprintf(fmt, args);
#else
        weak_raw_vprintf(fmt, args);
10000390:	0018      	movs	r0, r3
/usr/local/share/pico/pico-sdk/src/rp2_common/pico_platform_panic/panic.c:71
        va_start(args, fmt);
10000392:	9101      	str	r1, [sp, #4]
/usr/local/share/pico/pico-sdk/src/rp2_common/pico_platform_panic/panic.c:75
        weak_raw_vprintf(fmt, args);
10000394:	f000 ffac 	bl	100012f0 <weak_raw_vprintf>
/usr/local/share/pico/pico-sdk/src/rp2_common/pico_platform_panic/panic.c:78
#endif
        va_end(args);
        puts("\n");
10000398:	4803      	ldr	r0, [pc, #12]	@ (100003a8 <panic+0x2c>)
1000039a:	f001 f915 	bl	100015c8 <__wrap_puts>
/usr/local/share/pico/pico-sdk/src/rp2_common/pico_platform_panic/panic.c:82
#endif
    }

    _exit(1);
1000039e:	2001      	movs	r0, #1
100003a0:	f000 ffbe 	bl	10001320 <_exit>
100003a4:	100016d8 	.word	0x100016d8
100003a8:	100016e8 	.word	0x100016e8

100003ac <hw_claim_or_assert>:
hw_claim_or_assert():
/usr/local/share/pico/pico-sdk/src/common/hardware_claim/claim.c:21

inline bool hw_is_claimed(const uint8_t *bits, uint bit_index) {
    return (bits[bit_index >> 3u] & (1u << (bit_index & 7u)));
}

void hw_claim_or_assert(uint8_t *bits, uint bit_index, const char *message) {
100003ac:	b570      	push	{r4, r5, r6, lr}
save_and_disable_interrupts():
/usr/local/share/pico/pico-sdk/src/rp2_common/hardware_sync/include/hardware/sync.h:245
    pico_default_asm_volatile (
        "csrrci %0, mstatus, 0x8\n"
        : "=r" (status) :: "memory"
    );
#else
    pico_default_asm_volatile (
100003ae:	f3ef 8c10 	mrs	ip, PRIMASK
100003b2:	b672      	cpsid	i
spin_lock_unsafe_blocking():
/usr/local/share/pico/pico-sdk/src/rp2_common/hardware_sync_spin_lock/include/hardware/sync/spin_lock.h:265
    // with INTERRUPTS disabled (to ensure that)... therefore nothing on our core could be blocking us, so we just need to wait on another core
    // anyway which should be finished soon
#if PICO_USE_SW_SPIN_LOCKS
    SW_SPIN_LOCK_LOCK(lock);
#else
    while (__builtin_expect(!*lock, 0)) { // read from spinlock register (tries to acquire the lock)
100003b4:	4d0d      	ldr	r5, [pc, #52]	@ (100003ec <hw_claim_or_assert+0x40>)
100003b6:	682b      	ldr	r3, [r5, #0]
100003b8:	2b00      	cmp	r3, #0
100003ba:	d0fc      	beq.n	100003b6 <hw_claim_or_assert+0xa>
__dmb():
/usr/local/share/pico/pico-sdk/src/rp2_common/hardware_sync/include/hardware/sync.h:136
    pico_default_asm_volatile ("dmb" : : : "memory");
100003bc:	f3bf 8f5f 	dmb	sy
hw_is_claimed():
/usr/local/share/pico/pico-sdk/src/common/hardware_claim/claim.c:18
    return (bits[bit_index >> 3u] & (1u << (bit_index & 7u)));
100003c0:	2407      	movs	r4, #7
100003c2:	08cb      	lsrs	r3, r1, #3
100003c4:	18c6      	adds	r6, r0, r3
100003c6:	5cc0      	ldrb	r0, [r0, r3]
100003c8:	2301      	movs	r3, #1
100003ca:	400c      	ands	r4, r1
100003cc:	40a3      	lsls	r3, r4
100003ce:	001c      	movs	r4, r3
100003d0:	4004      	ands	r4, r0
hw_claim_or_assert():
/usr/local/share/pico/pico-sdk/src/common/hardware_claim/claim.c:23
    uint32_t save = hw_claim_lock();
    if (hw_is_claimed(bits, bit_index)) {
100003d2:	4203      	tst	r3, r0
100003d4:	d107      	bne.n	100003e6 <hw_claim_or_assert+0x3a>
/usr/local/share/pico/pico-sdk/src/common/hardware_claim/claim.c:26
        panic(message, bit_index);
    } else {
        bits[bit_index >> 3u] |= (uint8_t)(1u << (bit_index & 7u));
100003d6:	4318      	orrs	r0, r3
100003d8:	7030      	strb	r0, [r6, #0]
__dmb():
/usr/local/share/pico/pico-sdk/src/rp2_common/hardware_sync/include/hardware/sync.h:136
100003da:	f3bf 8f5f 	dmb	sy
spin_unlock_unsafe():
/usr/local/share/pico/pico-sdk/src/rp2_common/hardware_sync_spin_lock/include/hardware/sync/spin_lock.h:289
__force_inline static void spin_unlock_unsafe(spin_lock_t *lock) {
#if PICO_USE_SW_SPIN_LOCKS
    SW_SPIN_LOCK_UNLOCK(lock);
#else
    __mem_fence_release();
    *lock = 0; // write to spinlock register (release lock)
100003de:	602c      	str	r4, [r5, #0]
restore_interrupts_from_disabled():
/usr/local/share/pico/pico-sdk/src/rp2_common/hardware_sync/include/hardware/sync.h:289
    __compiler_memory_barrier();
    riscv_set_csr(mstatus, status & 8);
    __compiler_memory_barrier();
#else
    // on ARM, this behaves the same as restore_interrupts()
    pico_default_asm_volatile ("msr PRIMASK,%0"::"r" (status) : "memory" );
100003e0:	f38c 8810 	msr	PRIMASK, ip
hw_claim_or_assert():
/usr/local/share/pico/pico-sdk/src/common/hardware_claim/claim.c:29
    }
    hw_claim_unlock(save);
}
100003e4:	bd70      	pop	{r4, r5, r6, pc}
/usr/local/share/pico/pico-sdk/src/common/hardware_claim/claim.c:24
        panic(message, bit_index);
100003e6:	0010      	movs	r0, r2
100003e8:	f7ff ffc8 	bl	1000037c <panic>
100003ec:	d000012c 	.word	0xd000012c

100003f0 <next_striped_spin_lock_num>:
next_striped_spin_lock_num():
/usr/local/share/pico/pico-sdk/src/rp2_common/hardware_sync/sync.c:19
static void check_lock_num(uint __unused lock_num) {
    invalid_params_if(HARDWARE_SYNC, lock_num >= 32);
}

uint next_striped_spin_lock_num(void) {
    uint rc = striped_spin_lock_num++;
100003f0:	4a04      	ldr	r2, [pc, #16]	@ (10000404 <next_striped_spin_lock_num+0x14>)
100003f2:	7810      	ldrb	r0, [r2, #0]
100003f4:	1c43      	adds	r3, r0, #1
100003f6:	b2db      	uxtb	r3, r3
/usr/local/share/pico/pico-sdk/src/rp2_common/hardware_sync/sync.c:20
    if (striped_spin_lock_num > PICO_SPINLOCK_ID_STRIPED_LAST) {
100003f8:	2b17      	cmp	r3, #23
100003fa:	d900      	bls.n	100003fe <next_striped_spin_lock_num+0xe>
100003fc:	2310      	movs	r3, #16
/usr/local/share/pico/pico-sdk/src/rp2_common/hardware_sync/sync.c:19
    uint rc = striped_spin_lock_num++;
100003fe:	7013      	strb	r3, [r2, #0]
/usr/local/share/pico/pico-sdk/src/rp2_common/hardware_sync/sync.c:24
        striped_spin_lock_num = PICO_SPINLOCK_ID_STRIPED_FIRST;
    }
    return rc;
}
10000400:	4770      	bx	lr
10000402:	46c0      	nop			@ (mov r8, r8)
10000404:	20000198 	.word	0x20000198

10000408 <spin_locks_reset>:
spin_unlock_unsafe():
/usr/local/share/pico/pico-sdk/src/rp2_common/hardware_sync_spin_lock/include/hardware/sync/spin_lock.h:289
10000408:	2100      	movs	r1, #0
spin_locks_reset():
/usr/local/share/pico/pico-sdk/src/rp2_common/hardware_sync_spin_lock/sync_spin_lock.c:8
 *
 * SPDX-License-Identifier: BSD-3-Clause
 */
#include "hardware/sync/spin_lock.h"

void spin_locks_reset(void) {
1000040a:	4b04      	ldr	r3, [pc, #16]	@ (1000041c <spin_locks_reset+0x14>)
/usr/local/share/pico/pico-sdk/src/rp2_common/hardware_sync_spin_lock/sync_spin_lock.c:9
    for (uint i = 0; i < NUM_SPIN_LOCKS; i++) {
1000040c:	4a04      	ldr	r2, [pc, #16]	@ (10000420 <spin_locks_reset+0x18>)
__dmb():
/usr/local/share/pico/pico-sdk/src/rp2_common/hardware_sync/include/hardware/sync.h:136
    pico_default_asm_volatile ("dmb" : : : "memory");
1000040e:	f3bf 8f5f 	dmb	sy
spin_unlock_unsafe():
/usr/local/share/pico/pico-sdk/src/rp2_common/hardware_sync_spin_lock/include/hardware/sync/spin_lock.h:289
10000412:	c302      	stmia	r3!, {r1}
spin_locks_reset():
/usr/local/share/pico/pico-sdk/src/rp2_common/hardware_sync_spin_lock/sync_spin_lock.c:9
10000414:	4293      	cmp	r3, r2
10000416:	d1fa      	bne.n	1000040e <spin_locks_reset+0x6>
/usr/local/share/pico/pico-sdk/src/rp2_common/hardware_sync_spin_lock/sync_spin_lock.c:12
        spin_unlock_unsafe(spin_lock_instance(i));
    }
}
10000418:	4770      	bx	lr
1000041a:	46c0      	nop			@ (mov r8, r8)
1000041c:	d0000100 	.word	0xd0000100
10000420:	d0000180 	.word	0xd0000180

10000424 <runtime_init_per_core_irq_priorities>:
runtime_init_per_core_irq_priorities():
/usr/local/share/pico/pico-sdk/src/rp2_common/hardware_irq/irq.c:675
#ifndef __riscv
    // static_assert(!(NUM_IRQS & 3), ""); // this isn't really required - the reg is still 32 bit
    uint32_t prio4 = (PICO_DEFAULT_IRQ_PRIORITY & 0xff) * 0x1010101u;
    io_rw_32 *p = nvic_ipr0();
    for (uint i = 0; i < (NUM_IRQS + 3) / 4; i++) {
        *p++ = prio4;
10000424:	4b05      	ldr	r3, [pc, #20]	@ (1000043c <runtime_init_per_core_irq_priorities+0x18>)
10000426:	4a06      	ldr	r2, [pc, #24]	@ (10000440 <runtime_init_per_core_irq_priorities+0x1c>)
10000428:	6013      	str	r3, [r2, #0]
1000042a:	4a06      	ldr	r2, [pc, #24]	@ (10000444 <runtime_init_per_core_irq_priorities+0x20>)
1000042c:	6013      	str	r3, [r2, #0]
1000042e:	6053      	str	r3, [r2, #4]
10000430:	6093      	str	r3, [r2, #8]
10000432:	60d3      	str	r3, [r2, #12]
10000434:	6113      	str	r3, [r2, #16]
10000436:	6153      	str	r3, [r2, #20]
10000438:	6193      	str	r3, [r2, #24]
/usr/local/share/pico/pico-sdk/src/rp2_common/hardware_irq/irq.c:687
#endif
#if !PICO_RP2040
    // enable interrupts that might be disabled by a previous bootloader stage (guarded for RP2040 as there is no bootrom chain_image call there)
    enable_interrupts();
#endif
}
1000043a:	4770      	bx	lr
1000043c:	80808080 	.word	0x80808080
10000440:	e000e400 	.word	0xe000e400
10000444:	e000e404 	.word	0xe000e404

10000448 <irq_set_enabled>:
irq_set_enabled():
/usr/local/share/pico/pico-sdk/src/rp2_common/hardware_irq/irq.c:63
    irq_set_mask_n_enabled(num / 32, 1u << (num % 32), enabled);
10000448:	231f      	movs	r3, #31
1000044a:	4018      	ands	r0, r3
1000044c:	3b1e      	subs	r3, #30
1000044e:	4083      	lsls	r3, r0
irq_set_mask_n_enabled_internal():
/usr/local/share/pico/pico-sdk/src/rp2_common/hardware_irq/irq.c:91
    if (enabled) {
10000450:	2900      	cmp	r1, #0
10000452:	d005      	beq.n	10000460 <irq_set_enabled+0x18>
/usr/local/share/pico/pico-sdk/src/rp2_common/hardware_irq/irq.c:92
        nvic_hw->icpr = mask;
10000454:	21c0      	movs	r1, #192	@ 0xc0
10000456:	4a04      	ldr	r2, [pc, #16]	@ (10000468 <irq_set_enabled+0x20>)
10000458:	0049      	lsls	r1, r1, #1
1000045a:	5053      	str	r3, [r2, r1]
/usr/local/share/pico/pico-sdk/src/rp2_common/hardware_irq/irq.c:93
        nvic_hw->iser = mask;
1000045c:	6013      	str	r3, [r2, #0]
irq_set_enabled():
/usr/local/share/pico/pico-sdk/src/rp2_common/hardware_irq/irq.c:64
}
1000045e:	4770      	bx	lr
irq_set_mask_n_enabled_internal():
/usr/local/share/pico/pico-sdk/src/rp2_common/hardware_irq/irq.c:95
        nvic_hw->icer = mask;
10000460:	2280      	movs	r2, #128	@ 0x80
10000462:	4901      	ldr	r1, [pc, #4]	@ (10000468 <irq_set_enabled+0x20>)
10000464:	508b      	str	r3, [r1, r2]
irq_set_enabled():
/usr/local/share/pico/pico-sdk/src/rp2_common/hardware_irq/irq.c:64
}
10000466:	e7fa      	b.n	1000045e <irq_set_enabled+0x16>
10000468:	e000e100 	.word	0xe000e100

1000046c <irq_set_exclusive_handler>:
irq_set_exclusive_handler():
/usr/local/share/pico/pico-sdk/src/rp2_common/hardware_irq/irq.c:231
void irq_set_exclusive_handler(uint num, irq_handler_t handler) {
1000046c:	b570      	push	{r4, r5, r6, lr}
1000046e:	000d      	movs	r5, r1
save_and_disable_interrupts():
/usr/local/share/pico/pico-sdk/src/rp2_common/hardware_sync/include/hardware/sync.h:245
    pico_default_asm_volatile (
10000470:	f3ef 8610 	mrs	r6, PRIMASK
10000474:	b672      	cpsid	i
spin_lock_unsafe_blocking():
/usr/local/share/pico/pico-sdk/src/rp2_common/hardware_sync_spin_lock/include/hardware/sync/spin_lock.h:265
    while (__builtin_expect(!*lock, 0)) { // read from spinlock register (tries to acquire the lock)
10000476:	4a0f      	ldr	r2, [pc, #60]	@ (100004b4 <irq_set_exclusive_handler+0x48>)
10000478:	6813      	ldr	r3, [r2, #0]
1000047a:	2b00      	cmp	r3, #0
1000047c:	d0fc      	beq.n	10000478 <irq_set_exclusive_handler+0xc>
__dmb():
/usr/local/share/pico/pico-sdk/src/rp2_common/hardware_sync/include/hardware/sync.h:136
    pico_default_asm_volatile ("dmb" : : : "memory");
1000047e:	f3bf 8f5f 	dmb	sy
get_vtable():
/usr/local/share/pico/pico-sdk/src/rp2_common/hardware_irq/irq.c:40
    return (irq_handler_t *) scb_hw->vtor;
10000482:	4b0d      	ldr	r3, [pc, #52]	@ (100004b8 <irq_set_exclusive_handler+0x4c>)
irq_get_vtable_handler():
/usr/local/share/pico/pico-sdk/src/rp2_common/hardware_irq/irq.c:222
    return get_vtable()[VTABLE_FIRST_IRQ + num];
10000484:	3010      	adds	r0, #16
get_vtable():
/usr/local/share/pico/pico-sdk/src/rp2_common/hardware_irq/irq.c:40
    return (irq_handler_t *) scb_hw->vtor;
10000486:	689b      	ldr	r3, [r3, #8]
irq_get_vtable_handler():
/usr/local/share/pico/pico-sdk/src/rp2_common/hardware_irq/irq.c:222
    return get_vtable()[VTABLE_FIRST_IRQ + num];
10000488:	0084      	lsls	r4, r0, #2
1000048a:	591b      	ldr	r3, [r3, r4]
irq_set_exclusive_handler():
/usr/local/share/pico/pico-sdk/src/rp2_common/hardware_irq/irq.c:237
    hard_assert(current == __unhandled_user_irq || current == handler);
1000048c:	4a0b      	ldr	r2, [pc, #44]	@ (100004bc <irq_set_exclusive_handler+0x50>)
1000048e:	4293      	cmp	r3, r2
10000490:	d003      	beq.n	1000049a <irq_set_exclusive_handler+0x2e>
/usr/local/share/pico/pico-sdk/src/rp2_common/hardware_irq/irq.c:237 (discriminator 2)
10000492:	429d      	cmp	r5, r3
10000494:	d001      	beq.n	1000049a <irq_set_exclusive_handler+0x2e>
hard_assert():
/usr/local/share/pico/pico-sdk/src/common/pico_base_headers/include/pico/assert.h:53
* In debug builds this is equivalent to \ref assert, however in release builds it calls \ref hard_assertion_failure
* which, by default, just calls \ref panic with the string "Hard assert"
*/
static inline void hard_assert(bool condition, ...) {
    if (!condition)
        hard_assertion_failure();
10000496:	f000 fd0d 	bl	10000eb4 <hard_assertion_failure>
get_vtable():
/usr/local/share/pico/pico-sdk/src/rp2_common/hardware_irq/irq.c:40
    return (irq_handler_t *) scb_hw->vtor;
1000049a:	4b07      	ldr	r3, [pc, #28]	@ (100004b8 <irq_set_exclusive_handler+0x4c>)
1000049c:	689b      	ldr	r3, [r3, #8]
set_raw_irq_handler_and_unlock():
/usr/local/share/pico/pico-sdk/src/rp2_common/hardware_irq/irq.c:207
    get_vtable()[VTABLE_FIRST_IRQ + num] = handler;
1000049e:	511d      	str	r5, [r3, r4]
__dmb():
/usr/local/share/pico/pico-sdk/src/rp2_common/hardware_sync/include/hardware/sync.h:136
100004a0:	f3bf 8f5f 	dmb	sy
100004a4:	f3bf 8f5f 	dmb	sy
spin_unlock_unsafe():
/usr/local/share/pico/pico-sdk/src/rp2_common/hardware_sync_spin_lock/include/hardware/sync/spin_lock.h:289
    *lock = 0; // write to spinlock register (release lock)
100004a8:	2200      	movs	r2, #0
100004aa:	4b02      	ldr	r3, [pc, #8]	@ (100004b4 <irq_set_exclusive_handler+0x48>)
100004ac:	601a      	str	r2, [r3, #0]
restore_interrupts_from_disabled():
/usr/local/share/pico/pico-sdk/src/rp2_common/hardware_sync/include/hardware/sync.h:289
    pico_default_asm_volatile ("msr PRIMASK,%0"::"r" (status) : "memory" );
100004ae:	f386 8810 	msr	PRIMASK, r6
irq_set_exclusive_handler():
/usr/local/share/pico/pico-sdk/src/rp2_common/hardware_irq/irq.c:243
}
100004b2:	bd70      	pop	{r4, r5, r6, pc}
100004b4:	d0000124 	.word	0xd0000124
100004b8:	e000ed00 	.word	0xe000ed00
100004bc:	100001c1 	.word	0x100001c1

100004c0 <lock_init>:
spin_lock_instance():
/usr/local/share/pico/pico-sdk/src/rp2_common/hardware_sync_spin_lock/include/hardware/sync/spin_lock.h:230
    return (spin_lock_t *) (SIO_BASE + SIO_SPINLOCK0_OFFSET + lock_num * 4);
100004c0:	4b02      	ldr	r3, [pc, #8]	@ (100004cc <lock_init+0xc>)
100004c2:	469c      	mov	ip, r3
100004c4:	4461      	add	r1, ip
100004c6:	0089      	lsls	r1, r1, #2
lock_init():
/usr/local/share/pico/pico-sdk/src/common/pico_sync/lock_core.c:11

#include "pico/lock_core.h"

void lock_init(lock_core_t *core, uint lock_num) {
    valid_params_if(LOCK_CORE, lock_num < NUM_SPIN_LOCKS);
    core->spin_lock = spin_lock_instance(lock_num);
100004c8:	6001      	str	r1, [r0, #0]
/usr/local/share/pico/pico-sdk/src/common/pico_sync/lock_core.c:12
}
100004ca:	4770      	bx	lr
100004cc:	34000040 	.word	0x34000040

100004d0 <runtime_init_mutex>:
runtime_init_mutex():
/usr/local/share/pico/pico-sdk/src/common/pico_sync/mutex.c:12
#include "pico/mutex.h"
#include "pico/time.h"
#include "pico/runtime_init.h"

#if !PICO_RUNTIME_NO_INIT_MUTEX
void __weak runtime_init_mutex(void) {
100004d0:	b5f8      	push	{r3, r4, r5, r6, r7, lr}
/usr/local/share/pico/pico-sdk/src/common/pico_sync/mutex.c:24
    static_assert(!offsetof(mutex_t, core), "");
    static_assert(!offsetof(recursive_mutex_t, core), "");
    extern lock_core_t __mutex_array_start;
    extern lock_core_t __mutex_array_end;

    for (lock_core_t *l = &__mutex_array_start; l < &__mutex_array_end; ) {
100004d2:	4d13      	ldr	r5, [pc, #76]	@ (10000520 <runtime_init_mutex+0x50>)
100004d4:	4e13      	ldr	r6, [pc, #76]	@ (10000524 <runtime_init_mutex+0x54>)
100004d6:	002c      	movs	r4, r5
mutex_init():
/usr/local/share/pico/pico-sdk/src/common/pico_sync/mutex.c:45
PICO_RUNTIME_INIT_FUNC_RUNTIME(runtime_init_mutex, PICO_RUNTIME_INIT_MUTEX);
#endif

void mutex_init(mutex_t *mtx) {
    lock_init(&mtx->core, next_striped_spin_lock_num());
    mtx->owner = LOCK_INVALID_OWNER_ID;
100004d8:	27ff      	movs	r7, #255	@ 0xff
runtime_init_mutex():
/usr/local/share/pico/pico-sdk/src/common/pico_sync/mutex.c:24
    for (lock_core_t *l = &__mutex_array_start; l < &__mutex_array_end; ) {
100004da:	42b5      	cmp	r5, r6
100004dc:	d21e      	bcs.n	1000051c <runtime_init_mutex+0x4c>
/usr/local/share/pico/pico-sdk/src/common/pico_sync/mutex.c:25
        if (l->spin_lock) {
100004de:	6823      	ldr	r3, [r4, #0]
100004e0:	2b00      	cmp	r3, #0
100004e2:	d00f      	beq.n	10000504 <runtime_init_mutex+0x34>
recursive_mutex_init():
/usr/local/share/pico/pico-sdk/src/common/pico_sync/mutex.c:53
#endif
    __mem_fence_release();
}

void recursive_mutex_init(recursive_mutex_t *mtx) {
    lock_init(&mtx->core, next_striped_spin_lock_num());
100004e4:	f7ff ff84 	bl	100003f0 <next_striped_spin_lock_num>
100004e8:	0001      	movs	r1, r0
100004ea:	0028      	movs	r0, r5
100004ec:	f7ff ffe8 	bl	100004c0 <lock_init>
/usr/local/share/pico/pico-sdk/src/common/pico_sync/mutex.c:54
    mtx->owner = LOCK_INVALID_OWNER_ID;
100004f0:	80a7      	strh	r7, [r4, #4]
__dmb():
/usr/local/share/pico/pico-sdk/src/rp2_common/hardware_sync/include/hardware/sync.h:136
    pico_default_asm_volatile ("dmb" : : : "memory");
100004f2:	f3bf 8f5f 	dmb	sy
runtime_init_mutex():
/usr/local/share/pico/pico-sdk/src/common/pico_sync/mutex.c:29
            l = &rm[1].core; // next
100004f6:	3408      	adds	r4, #8
/usr/local/share/pico/pico-sdk/src/common/pico_sync/mutex.c:24
    for (lock_core_t *l = &__mutex_array_start; l < &__mutex_array_end; ) {
100004f8:	42b4      	cmp	r4, r6
100004fa:	d20f      	bcs.n	1000051c <runtime_init_mutex+0x4c>
/usr/local/share/pico/pico-sdk/src/common/pico_sync/mutex.c:25
        if (l->spin_lock) {
100004fc:	6823      	ldr	r3, [r4, #0]
/usr/local/share/pico/pico-sdk/src/common/pico_sync/mutex.c:12
void __weak runtime_init_mutex(void) {
100004fe:	0025      	movs	r5, r4
/usr/local/share/pico/pico-sdk/src/common/pico_sync/mutex.c:25
        if (l->spin_lock) {
10000500:	2b00      	cmp	r3, #0
10000502:	d1ef      	bne.n	100004e4 <runtime_init_mutex+0x14>
mutex_init():
/usr/local/share/pico/pico-sdk/src/common/pico_sync/mutex.c:44
    lock_init(&mtx->core, next_striped_spin_lock_num());
10000504:	f7ff ff74 	bl	100003f0 <next_striped_spin_lock_num>
10000508:	0001      	movs	r1, r0
1000050a:	0028      	movs	r0, r5
1000050c:	f7ff ffd8 	bl	100004c0 <lock_init>
/usr/local/share/pico/pico-sdk/src/common/pico_sync/mutex.c:45
    mtx->owner = LOCK_INVALID_OWNER_ID;
10000510:	7127      	strb	r7, [r4, #4]
__dmb():
/usr/local/share/pico/pico-sdk/src/rp2_common/hardware_sync/include/hardware/sync.h:136
10000512:	f3bf 8f5f 	dmb	sy
runtime_init_mutex():
/usr/local/share/pico/pico-sdk/src/common/pico_sync/mutex.c:33
            l = &m[1].core; // next
10000516:	3408      	adds	r4, #8
/usr/local/share/pico/pico-sdk/src/common/pico_sync/mutex.c:24
    for (lock_core_t *l = &__mutex_array_start; l < &__mutex_array_end; ) {
10000518:	42b4      	cmp	r4, r6
1000051a:	d3ef      	bcc.n	100004fc <runtime_init_mutex+0x2c>
/usr/local/share/pico/pico-sdk/src/common/pico_sync/mutex.c:36
}
1000051c:	bdf8      	pop	{r3, r4, r5, r6, r7, pc}
1000051e:	46c0      	nop			@ (mov r8, r8)
10000520:	200001e0 	.word	0x200001e0
10000524:	200001e8 	.word	0x200001e8

10000528 <sleep_until_callback>:
sleep_until_callback():
/usr/local/share/pico/pico-sdk/src/common/pico_time/time.c:386
    return pool->core_num;
}

#if !PICO_TIME_DEFAULT_ALARM_POOL_DISABLED
static int64_t sleep_until_callback(__unused alarm_id_t id, __unused void *user_data) {
    uint32_t save = spin_lock_blocking(sleep_notifier.spin_lock);
10000528:	4b0a      	ldr	r3, [pc, #40]	@ (10000554 <sleep_until_callback+0x2c>)
1000052a:	6819      	ldr	r1, [r3, #0]
save_and_disable_interrupts():
/usr/local/share/pico/pico-sdk/src/rp2_common/hardware_sync/include/hardware/sync.h:245
    pico_default_asm_volatile (
1000052c:	f3ef 8010 	mrs	r0, PRIMASK
10000530:	b672      	cpsid	i
spin_lock_unsafe_blocking():
/usr/local/share/pico/pico-sdk/src/rp2_common/hardware_sync_spin_lock/include/hardware/sync/spin_lock.h:265
    while (__builtin_expect(!*lock, 0)) { // read from spinlock register (tries to acquire the lock)
10000532:	680a      	ldr	r2, [r1, #0]
10000534:	2a00      	cmp	r2, #0
10000536:	d0fc      	beq.n	10000532 <sleep_until_callback+0xa>
__dmb():
/usr/local/share/pico/pico-sdk/src/rp2_common/hardware_sync/include/hardware/sync.h:136
    pico_default_asm_volatile ("dmb" : : : "memory");
10000538:	f3bf 8f5f 	dmb	sy
sleep_until_callback():
/usr/local/share/pico/pico-sdk/src/common/pico_time/time.c:387
    lock_internal_spin_unlock_with_notify(&sleep_notifier, save);
1000053c:	681b      	ldr	r3, [r3, #0]
__dmb():
/usr/local/share/pico/pico-sdk/src/rp2_common/hardware_sync/include/hardware/sync.h:136
1000053e:	f3bf 8f5f 	dmb	sy
spin_unlock_unsafe():
/usr/local/share/pico/pico-sdk/src/rp2_common/hardware_sync_spin_lock/include/hardware/sync/spin_lock.h:289
    *lock = 0; // write to spinlock register (release lock)
10000542:	2200      	movs	r2, #0
10000544:	601a      	str	r2, [r3, #0]
restore_interrupts_from_disabled():
/usr/local/share/pico/pico-sdk/src/rp2_common/hardware_sync/include/hardware/sync.h:289
    pico_default_asm_volatile ("msr PRIMASK,%0"::"r" (status) : "memory" );
10000546:	f380 8810 	msr	PRIMASK, r0
__sev():
/usr/local/share/pico/pico-sdk/src/rp2_common/hardware_sync/include/hardware/sync.h:94
    pico_default_asm_volatile ("sev");
1000054a:	bf40      	sev
sleep_until_callback():
/usr/local/share/pico/pico-sdk/src/common/pico_time/time.c:389
    return 0;
}
1000054c:	2000      	movs	r0, #0
1000054e:	2100      	movs	r1, #0
10000550:	4770      	bx	lr
10000552:	46c0      	nop			@ (mov r8, r8)
10000554:	200005d0 	.word	0x200005d0

10000558 <alarm_pool_irq_handler>:
alarm_pool_irq_handler():
/usr/local/share/pico/pico-sdk/src/common/pico_time/time.c:136
static void alarm_pool_irq_handler(void) {
10000558:	b5f0      	push	{r4, r5, r6, r7, lr}
1000055a:	46de      	mov	lr, fp
1000055c:	4657      	mov	r7, sl
1000055e:	464e      	mov	r6, r9
10000560:	4645      	mov	r5, r8
10000562:	b5e0      	push	{r5, r6, r7, lr}
10000564:	b085      	sub	sp, #20
__get_current_exception():
/usr/local/share/pico/pico-sdk/src/rp2040/pico_platform/include/pico/platform.h:133
 *
 * \return the exception number if the CPU is handling an exception, or 0 otherwise
 */
static __force_inline uint __get_current_exception(void) {
    uint exception;
    pico_default_asm_volatile ( "mrs %0, ipsr" : "=l" (exception));
10000566:	f3ef 8205 	mrs	r2, IPSR
ta_from_current_irq():
/usr/local/share/pico/pico-sdk/src/rp2_common/pico_time_adapter/include/pico/time_adapter.h:34
}

static inline alarm_pool_timer_t *ta_from_current_irq(uint *alarm_num) {
    uint irq_num = __get_current_exception() - VTABLE_FIRST_IRQ;
    alarm_pool_timer_t *timer = timer_get_instance(TIMER_NUM_FROM_IRQ(irq_num));
    *alarm_num = TIMER_ALARM_NUM_FROM_IRQ(irq_num);
1000056a:	2303      	movs	r3, #3
1000056c:	4013      	ands	r3, r2
alarm_pool_irq_handler():
/usr/local/share/pico/pico-sdk/src/common/pico_time/time.c:145
    alarm_pool_t *pool = pools[timer_num][timer_alarm_num];
1000056e:	4ab6      	ldr	r2, [pc, #728]	@ (10000848 <alarm_pool_irq_handler+0x2f0>)
10000570:	0099      	lsls	r1, r3, #2
10000572:	5857      	ldr	r7, [r2, r1]
ta_clear_force_irq():
/usr/local/share/pico/pico-sdk/src/rp2_common/pico_time_adapter/include/pico/time_adapter.h:24
    hw_clear_bits(&timer_hw_from_timer(timer)->intf, 1u << alarm_num);
10000574:	2201      	movs	r2, #1
10000576:	409a      	lsls	r2, r3
alarm_pool_irq_handler():
/usr/local/share/pico/pico-sdk/src/common/pico_time/time.c:145
10000578:	4688      	mov	r8, r1
ta_clear_force_irq():
/usr/local/share/pico/pico-sdk/src/rp2_common/pico_time_adapter/include/pico/time_adapter.h:24
1000057a:	4693      	mov	fp, r2
hw_clear_bits():
/usr/local/share/pico/pico-sdk/src/rp2_common/hardware_base/include/hardware/address_mapped.h:146
    *(io_rw_32 *) hw_clear_alias_untyped((volatile void *) addr) = mask;
1000057c:	4bb3      	ldr	r3, [pc, #716]	@ (1000084c <alarm_pool_irq_handler+0x2f4>)
1000057e:	601a      	str	r2, [r3, #0]
alarm_pool_irq_handler():
/usr/local/share/pico/pico-sdk/src/common/pico_time/time.c:171
                    if (earliest_entry->callback == repeating_timer_marker) {
10000580:	4bb3      	ldr	r3, [pc, #716]	@ (10000850 <alarm_pool_irq_handler+0x2f8>)
10000582:	9302      	str	r3, [sp, #8]
ta_clear_irq():
/usr/local/share/pico/pico-sdk/src/rp2_common/pico_time_adapter/include/pico/time_adapter.h:28
    timer_hw_from_timer(timer)->intr = 1u << alarm_num;
10000584:	465b      	mov	r3, fp
10000586:	48b3      	ldr	r0, [pc, #716]	@ (10000854 <alarm_pool_irq_handler+0x2fc>)
10000588:	6343      	str	r3, [r0, #52]	@ 0x34
alarm_pool_irq_handler():
/usr/local/share/pico/pico-sdk/src/common/pico_time/time.c:157
        int16_t earliest_index = pool->ordered_head;
1000058a:	2308      	movs	r3, #8
1000058c:	5efe      	ldrsh	r6, [r7, r3]
/usr/local/share/pico/pico-sdk/src/common/pico_time/time.c:160
        if (earliest_index >= 0) {
1000058e:	2e00      	cmp	r6, #0
10000590:	da35      	bge.n	100005fe <alarm_pool_irq_handler+0xa6>
/usr/local/share/pico/pico-sdk/src/common/pico_time/time.c:216
        if (pool->new_head >= 0) {
10000592:	88bb      	ldrh	r3, [r7, #4]
10000594:	b21b      	sxth	r3, r3
10000596:	2b00      	cmp	r3, #0
10000598:	db00      	blt.n	1000059c <alarm_pool_irq_handler+0x44>
1000059a:	e0a8      	b.n	100006ee <alarm_pool_irq_handler+0x196>
/usr/local/share/pico/pico-sdk/src/common/pico_time/time.c:240
        if (pool->has_pending_cancellations) {
1000059c:	79bb      	ldrb	r3, [r7, #6]
1000059e:	2b00      	cmp	r3, #0
100005a0:	d000      	beq.n	100005a4 <alarm_pool_irq_handler+0x4c>
100005a2:	e0e9      	b.n	10000778 <alarm_pool_irq_handler+0x220>
/usr/local/share/pico/pico-sdk/src/common/pico_time/time.c:263
        earliest_index = pool->ordered_head;
100005a4:	2308      	movs	r3, #8
100005a6:	5ef8      	ldrsh	r0, [r7, r3]
/usr/local/share/pico/pico-sdk/src/common/pico_time/time.c:264
        if (earliest_index < 0) break;
100005a8:	2800      	cmp	r0, #0
100005aa:	db1e      	blt.n	100005ea <alarm_pool_irq_handler+0x92>
/usr/local/share/pico/pico-sdk/src/common/pico_time/time.c:267
        earliest_target = earliest_entry->target;
100005ac:	0043      	lsls	r3, r0, #1
100005ae:	697a      	ldr	r2, [r7, #20]
100005b0:	181b      	adds	r3, r3, r0
100005b2:	00db      	lsls	r3, r3, #3
100005b4:	18d3      	adds	r3, r2, r3
100005b6:	689d      	ldr	r5, [r3, #8]
100005b8:	68dc      	ldr	r4, [r3, #12]
/usr/local/share/pico/pico-sdk/src/common/pico_time/time.c:271
        if (earliest_target != -1) { // cancelled alarm has target of -1
100005ba:	1c6b      	adds	r3, r5, #1
100005bc:	d100      	bne.n	100005c0 <alarm_pool_irq_handler+0x68>
100005be:	e108      	b.n	100007d2 <alarm_pool_irq_handler+0x27a>
timer_time_us_32():
/usr/local/share/pico/pico-sdk/src/rp2_common/hardware_timer/include/hardware/timer.h:203
* \param timer the timer instance
* \return the 32 bit timestamp
* \sa time_us_32
*/
static inline uint32_t timer_time_us_32(timer_hw_t *timer) {
    return timer->timerawl;
100005c0:	48a4      	ldr	r0, [pc, #656]	@ (10000854 <alarm_pool_irq_handler+0x2fc>)
100005c2:	0001      	movs	r1, r0
100005c4:	4441      	add	r1, r8
100005c6:	6a82      	ldr	r2, [r0, #40]	@ 0x28
ta_set_timeout():
/usr/local/share/pico/pico-sdk/src/rp2_common/pico_time_adapter/include/pico/time_adapter.h:42

static inline void ta_set_timeout(alarm_pool_timer_t *timer, uint alarm_num, int64_t target) {
    // We never want to set the timeout to be later than our current one.
    uint32_t current = timer_time_us_32(timer_hw_from_timer(timer));
    uint32_t time_til_target = (uint32_t) target - current;
    uint32_t time_til_alarm = timer_hw_from_timer(timer)->alarm[alarm_num] - current;
100005c8:	690b      	ldr	r3, [r1, #16]
/usr/local/share/pico/pico-sdk/src/rp2_common/pico_time_adapter/include/pico/time_adapter.h:41
    uint32_t time_til_target = (uint32_t) target - current;
100005ca:	1aae      	subs	r6, r5, r2
/usr/local/share/pico/pico-sdk/src/rp2_common/pico_time_adapter/include/pico/time_adapter.h:42
    uint32_t time_til_alarm = timer_hw_from_timer(timer)->alarm[alarm_num] - current;
100005cc:	1a9b      	subs	r3, r3, r2
/usr/local/share/pico/pico-sdk/src/rp2_common/pico_time_adapter/include/pico/time_adapter.h:52
    //    likely do the update, but this is OK since the alarm will have just fired
    // 2. If we just passed the target time, then time_til_target will be high, meaning we will
    //    likely not do the update, but this is OK since the caller who has the full 64 bits
    //    must check if the target time has passed when we return anyway to avoid races.
    // 3. We should never leave here without an alarm being armed
    if (time_til_target < time_til_alarm || (timer_hw_from_timer(timer)->armed & (1 << alarm_num)) == 0) {
100005ce:	429e      	cmp	r6, r3
100005d0:	d313      	bcc.n	100005fa <alarm_pool_irq_handler+0xa2>
100005d2:	465a      	mov	r2, fp
100005d4:	6a03      	ldr	r3, [r0, #32]
100005d6:	421a      	tst	r2, r3
100005d8:	d00f      	beq.n	100005fa <alarm_pool_irq_handler+0xa2>
ta_time_us_64():
/usr/local/share/pico/pico-sdk/src/rp2_common/pico_time_adapter/include/pico/time_adapter.h:65
    uint32_t time_til_alarm = timer_hw_from_timer(timer)->alarm[alarm_num] - (uint32_t)current;
    return time_til_alarm <= time_til_target;
}

static inline uint64_t ta_time_us_64(alarm_pool_timer_t *timer) {
    return timer_time_us_64(timer_hw_from_timer(timer));
100005da:	489e      	ldr	r0, [pc, #632]	@ (10000854 <alarm_pool_irq_handler+0x2fc>)
100005dc:	f000 fac4 	bl	10000b68 <timer_time_us_64>
alarm_pool_irq_handler():
/usr/local/share/pico/pico-sdk/src/common/pico_time/time.c:275
    } while ((earliest_target - (int64_t)ta_time_us_64(timer)) <= 0);
100005e0:	428c      	cmp	r4, r1
100005e2:	dc02      	bgt.n	100005ea <alarm_pool_irq_handler+0x92>
100005e4:	d1ce      	bne.n	10000584 <alarm_pool_irq_handler+0x2c>
100005e6:	4285      	cmp	r5, r0
100005e8:	d9cc      	bls.n	10000584 <alarm_pool_irq_handler+0x2c>
__sev():
/usr/local/share/pico/pico-sdk/src/rp2_common/hardware_sync/include/hardware/sync.h:94
100005ea:	bf40      	sev
alarm_pool_irq_handler():
/usr/local/share/pico/pico-sdk/src/common/pico_time/time.c:279
}
100005ec:	b005      	add	sp, #20
100005ee:	bcf0      	pop	{r4, r5, r6, r7}
100005f0:	46bb      	mov	fp, r7
100005f2:	46b2      	mov	sl, r6
100005f4:	46a9      	mov	r9, r5
100005f6:	46a0      	mov	r8, r4
100005f8:	bdf0      	pop	{r4, r5, r6, r7, pc}
ta_set_timeout():
/usr/local/share/pico/pico-sdk/src/rp2_common/pico_time_adapter/include/pico/time_adapter.h:53
        timer_hw_from_timer(timer)->alarm[alarm_num] = (uint32_t) target;
100005fa:	610d      	str	r5, [r1, #16]
100005fc:	e7ed      	b.n	100005da <alarm_pool_irq_handler+0x82>
alarm_pool_irq_handler():
/usr/local/share/pico/pico-sdk/src/common/pico_time/time.c:161
            alarm_pool_entry_t *earliest_entry = &pool->entries[earliest_index];
100005fe:	697a      	ldr	r2, [r7, #20]
10000600:	0073      	lsls	r3, r6, #1
10000602:	4691      	mov	r9, r2
10000604:	199b      	adds	r3, r3, r6
10000606:	00db      	lsls	r3, r3, #3
10000608:	4499      	add	r9, r3
/usr/local/share/pico/pico-sdk/src/common/pico_time/time.c:162
            earliest_target = earliest_entry->target;
1000060a:	464b      	mov	r3, r9
1000060c:	689c      	ldr	r4, [r3, #8]
1000060e:	68dd      	ldr	r5, [r3, #12]
ta_time_us_64():
/usr/local/share/pico/pico-sdk/src/rp2_common/pico_time_adapter/include/pico/time_adapter.h:65
    return timer_time_us_64(timer_hw_from_timer(timer));
10000610:	f000 faaa 	bl	10000b68 <timer_time_us_64>
alarm_pool_irq_handler():
/usr/local/share/pico/pico-sdk/src/common/pico_time/time.c:163
            if (((int64_t)ta_time_us_64(timer) - earliest_target) >= 0) {
10000614:	428d      	cmp	r5, r1
10000616:	dcbc      	bgt.n	10000592 <alarm_pool_irq_handler+0x3a>
10000618:	d100      	bne.n	1000061c <alarm_pool_irq_handler+0xc4>
1000061a:	e0fe      	b.n	1000081a <alarm_pool_irq_handler+0x2c2>
/usr/local/share/pico/pico-sdk/src/common/pico_time/time.c:169
                if (earliest_target >= 0) {
1000061c:	2d00      	cmp	r5, #0
1000061e:	da00      	bge.n	10000622 <alarm_pool_irq_handler+0xca>
10000620:	e0e3      	b.n	100007ea <alarm_pool_irq_handler+0x292>
/usr/local/share/pico/pico-sdk/src/common/pico_time/time.c:171
                    if (earliest_entry->callback == repeating_timer_marker) {
10000622:	464b      	mov	r3, r9
10000624:	9a02      	ldr	r2, [sp, #8]
10000626:	691b      	ldr	r3, [r3, #16]
10000628:	4293      	cmp	r3, r2
1000062a:	d100      	bne.n	1000062e <alarm_pool_irq_handler+0xd6>
1000062c:	e0d5      	b.n	100007da <alarm_pool_irq_handler+0x282>
/usr/local/share/pico/pico-sdk/src/common/pico_time/time.c:175
                        alarm_id_t id = make_alarm_id(pool->ordered_head, earliest_entry->sequence);
1000062e:	464a      	mov	r2, r9
10000630:	8852      	ldrh	r2, [r2, #2]
/usr/local/share/pico/pico-sdk/src/common/pico_time/time.c:176
                        delta = earliest_entry->callback(id, earliest_entry->user_data);
10000632:	4649      	mov	r1, r9
/usr/local/share/pico/pico-sdk/src/common/pico_time/time.c:175
                        alarm_id_t id = make_alarm_id(pool->ordered_head, earliest_entry->sequence);
10000634:	4694      	mov	ip, r2
10000636:	2208      	movs	r2, #8
10000638:	5eb8      	ldrsh	r0, [r7, r2]
make_alarm_id():
/usr/local/share/pico/pico-sdk/src/common/pico_time/time.c:75
    return index << 16 | counter;
1000063a:	4662      	mov	r2, ip
1000063c:	0400      	lsls	r0, r0, #16
alarm_pool_irq_handler():
/usr/local/share/pico/pico-sdk/src/common/pico_time/time.c:176
                        delta = earliest_entry->callback(id, earliest_entry->user_data);
1000063e:	6949      	ldr	r1, [r1, #20]
make_alarm_id():
/usr/local/share/pico/pico-sdk/src/common/pico_time/time.c:75
    return index << 16 | counter;
10000640:	4310      	orrs	r0, r2
alarm_pool_irq_handler():
/usr/local/share/pico/pico-sdk/src/common/pico_time/time.c:176
                        delta = earliest_entry->callback(id, earliest_entry->user_data);
10000642:	4798      	blx	r3
10000644:	9000      	str	r0, [sp, #0]
10000646:	9101      	str	r1, [sp, #4]
/usr/local/share/pico/pico-sdk/src/common/pico_time/time.c:182
                if (delta) {
10000648:	9900      	ldr	r1, [sp, #0]
1000064a:	9a01      	ldr	r2, [sp, #4]
1000064c:	000b      	movs	r3, r1
1000064e:	0010      	movs	r0, r2
10000650:	4313      	orrs	r3, r2
10000652:	d100      	bne.n	10000656 <alarm_pool_irq_handler+0xfe>
10000654:	e0c9      	b.n	100007ea <alarm_pool_irq_handler+0x292>
/usr/local/share/pico/pico-sdk/src/common/pico_time/time.c:184
                    if (delta < 0) {
10000656:	0013      	movs	r3, r2
10000658:	000a      	movs	r2, r1
1000065a:	2800      	cmp	r0, #0
1000065c:	db00      	blt.n	10000660 <alarm_pool_irq_handler+0x108>
1000065e:	e0e0      	b.n	10000822 <alarm_pool_irq_handler+0x2ca>
/usr/local/share/pico/pico-sdk/src/common/pico_time/time.c:186
                        next_time = earliest_target - delta;
10000660:	0020      	movs	r0, r4
10000662:	0029      	movs	r1, r5
10000664:	1a80      	subs	r0, r0, r2
10000666:	4199      	sbcs	r1, r3
/usr/local/share/pico/pico-sdk/src/common/pico_time/time.c:191
                    earliest_entry->target = next_time;
10000668:	464b      	mov	r3, r9
1000066a:	6098      	str	r0, [r3, #8]
1000066c:	60d9      	str	r1, [r3, #12]
/usr/local/share/pico/pico-sdk/src/common/pico_time/time.c:193
                    if (earliest_entry->next >= 0 && next_time - pool->entries[earliest_entry->next].target >= 0) {
1000066e:	2200      	movs	r2, #0
10000670:	5e9a      	ldrsh	r2, [r3, r2]
10000672:	2a00      	cmp	r2, #0
10000674:	da00      	bge.n	10000678 <alarm_pool_irq_handler+0x120>
10000676:	e78c      	b.n	10000592 <alarm_pool_irq_handler+0x3a>
/usr/local/share/pico/pico-sdk/src/common/pico_time/time.c:193 (discriminator 1)
10000678:	0053      	lsls	r3, r2, #1
1000067a:	189c      	adds	r4, r3, r2
1000067c:	697d      	ldr	r5, [r7, #20]
1000067e:	00e4      	lsls	r4, r4, #3
10000680:	192c      	adds	r4, r5, r4
10000682:	9300      	str	r3, [sp, #0]
10000684:	68a3      	ldr	r3, [r4, #8]
10000686:	68e4      	ldr	r4, [r4, #12]
10000688:	469a      	mov	sl, r3
1000068a:	428c      	cmp	r4, r1
1000068c:	dd00      	ble.n	10000690 <alarm_pool_irq_handler+0x138>
1000068e:	e780      	b.n	10000592 <alarm_pool_irq_handler+0x3a>
10000690:	d102      	bne.n	10000698 <alarm_pool_irq_handler+0x140>
10000692:	4283      	cmp	r3, r0
10000694:	d900      	bls.n	10000698 <alarm_pool_irq_handler+0x140>
10000696:	e77c      	b.n	10000592 <alarm_pool_irq_handler+0x3a>
/usr/local/share/pico/pico-sdk/src/common/pico_time/time.c:196
                        int16_t *prev = &pool->ordered_head;
10000698:	2308      	movs	r3, #8
1000069a:	469c      	mov	ip, r3
1000069c:	44bc      	add	ip, r7
/usr/local/share/pico/pico-sdk/src/common/pico_time/time.c:195
                        pool->ordered_head = earliest_entry->next;
1000069e:	813a      	strh	r2, [r7, #8]
/usr/local/share/pico/pico-sdk/src/common/pico_time/time.c:198
                        while (*prev >= 0 && (next_time - pool->entries[*prev].target) >= 0) {
100006a0:	9703      	str	r7, [sp, #12]
100006a2:	4667      	mov	r7, ip
100006a4:	9b00      	ldr	r3, [sp, #0]
100006a6:	46b4      	mov	ip, r6
100006a8:	003e      	movs	r6, r7
100006aa:	e00e      	b.n	100006ca <alarm_pool_irq_handler+0x172>
/usr/local/share/pico/pico-sdk/src/common/pico_time/time.c:198 (discriminator 1)
100006ac:	428c      	cmp	r4, r1
100006ae:	d100      	bne.n	100006b2 <alarm_pool_irq_handler+0x15a>
100006b0:	e0c5      	b.n	1000083e <alarm_pool_irq_handler+0x2e6>
/usr/local/share/pico/pico-sdk/src/common/pico_time/time.c:199
                            prev = &pool->entries[*prev].next;
100006b2:	001e      	movs	r6, r3
100006b4:	2300      	movs	r3, #0
100006b6:	5ef2      	ldrsh	r2, [r6, r3]
/usr/local/share/pico/pico-sdk/src/common/pico_time/time.c:198
                        while (*prev >= 0 && (next_time - pool->entries[*prev].target) >= 0) {
100006b8:	2a00      	cmp	r2, #0
100006ba:	db0b      	blt.n	100006d4 <alarm_pool_irq_handler+0x17c>
100006bc:	0053      	lsls	r3, r2, #1
100006be:	189c      	adds	r4, r3, r2
100006c0:	00e4      	lsls	r4, r4, #3
100006c2:	192c      	adds	r4, r5, r4
100006c4:	68a7      	ldr	r7, [r4, #8]
100006c6:	68e4      	ldr	r4, [r4, #12]
100006c8:	46ba      	mov	sl, r7
/usr/local/share/pico/pico-sdk/src/common/pico_time/time.c:198 (discriminator 1)
100006ca:	189b      	adds	r3, r3, r2
100006cc:	00db      	lsls	r3, r3, #3
100006ce:	18eb      	adds	r3, r5, r3
100006d0:	428c      	cmp	r4, r1
100006d2:	ddeb      	ble.n	100006ac <alarm_pool_irq_handler+0x154>
/usr/local/share/pico/pico-sdk/src/common/pico_time/time.c:201
                        earliest_entry->next = *prev;
100006d4:	0033      	movs	r3, r6
100006d6:	4666      	mov	r6, ip
100006d8:	469c      	mov	ip, r3
100006da:	464b      	mov	r3, r9
100006dc:	801a      	strh	r2, [r3, #0]
/usr/local/share/pico/pico-sdk/src/common/pico_time/time.c:202
                        *prev = earliest_index;
100006de:	4663      	mov	r3, ip
/usr/local/share/pico/pico-sdk/src/common/pico_time/time.c:201
                        earliest_entry->next = *prev;
100006e0:	9f03      	ldr	r7, [sp, #12]
/usr/local/share/pico/pico-sdk/src/common/pico_time/time.c:202
                        *prev = earliest_index;
100006e2:	801e      	strh	r6, [r3, #0]
/usr/local/share/pico/pico-sdk/src/common/pico_time/time.c:216
        if (pool->new_head >= 0) {
100006e4:	88bb      	ldrh	r3, [r7, #4]
100006e6:	b21b      	sxth	r3, r3
100006e8:	2b00      	cmp	r3, #0
100006ea:	da00      	bge.n	100006ee <alarm_pool_irq_handler+0x196>
100006ec:	e756      	b.n	1000059c <alarm_pool_irq_handler+0x44>
/usr/local/share/pico/pico-sdk/src/common/pico_time/time.c:217
            uint32_t save = spin_lock_blocking(pool->lock);
100006ee:	693a      	ldr	r2, [r7, #16]
save_and_disable_interrupts():
/usr/local/share/pico/pico-sdk/src/rp2_common/hardware_sync/include/hardware/sync.h:245
    pico_default_asm_volatile (
100006f0:	f3ef 8110 	mrs	r1, PRIMASK
100006f4:	b672      	cpsid	i
spin_lock_unsafe_blocking():
/usr/local/share/pico/pico-sdk/src/rp2_common/hardware_sync_spin_lock/include/hardware/sync/spin_lock.h:265
    while (__builtin_expect(!*lock, 0)) { // read from spinlock register (tries to acquire the lock)
100006f6:	6813      	ldr	r3, [r2, #0]
100006f8:	2b00      	cmp	r3, #0
100006fa:	d0fc      	beq.n	100006f6 <alarm_pool_irq_handler+0x19e>
__dmb():
/usr/local/share/pico/pico-sdk/src/rp2_common/hardware_sync/include/hardware/sync.h:136
    pico_default_asm_volatile ("dmb" : : : "memory");
100006fc:	f3bf 8f5f 	dmb	sy
alarm_pool_irq_handler():
/usr/local/share/pico/pico-sdk/src/common/pico_time/time.c:221
            pool->new_head = -1;
10000700:	2301      	movs	r3, #1
/usr/local/share/pico/pico-sdk/src/common/pico_time/time.c:219
            int16_t new_index = pool->new_head;
10000702:	88be      	ldrh	r6, [r7, #4]
/usr/local/share/pico/pico-sdk/src/common/pico_time/time.c:221
            pool->new_head = -1;
10000704:	425b      	negs	r3, r3
10000706:	80bb      	strh	r3, [r7, #4]
/usr/local/share/pico/pico-sdk/src/common/pico_time/time.c:219
            int16_t new_index = pool->new_head;
10000708:	b236      	sxth	r6, r6
/usr/local/share/pico/pico-sdk/src/common/pico_time/time.c:222
            spin_unlock(pool->lock, save);
1000070a:	693b      	ldr	r3, [r7, #16]
__dmb():
/usr/local/share/pico/pico-sdk/src/rp2_common/hardware_sync/include/hardware/sync.h:136
1000070c:	f3bf 8f5f 	dmb	sy
spin_unlock_unsafe():
/usr/local/share/pico/pico-sdk/src/rp2_common/hardware_sync_spin_lock/include/hardware/sync/spin_lock.h:289
    *lock = 0; // write to spinlock register (release lock)
10000710:	2200      	movs	r2, #0
10000712:	601a      	str	r2, [r3, #0]
restore_interrupts_from_disabled():
/usr/local/share/pico/pico-sdk/src/rp2_common/hardware_sync/include/hardware/sync.h:289
    pico_default_asm_volatile ("msr PRIMASK,%0"::"r" (status) : "memory" );
10000714:	f381 8810 	msr	PRIMASK, r1
alarm_pool_irq_handler():
/usr/local/share/pico/pico-sdk/src/common/pico_time/time.c:224
            while (new_index >= 0) {
10000718:	2e00      	cmp	r6, #0
1000071a:	da00      	bge.n	1000071e <alarm_pool_irq_handler+0x1c6>
1000071c:	e73e      	b.n	1000059c <alarm_pool_irq_handler+0x44>
/usr/local/share/pico/pico-sdk/src/common/pico_time/time.c:196
                        int16_t *prev = &pool->ordered_head;
1000071e:	003b      	movs	r3, r7
10000720:	3308      	adds	r3, #8
10000722:	003a      	movs	r2, r7
10000724:	4699      	mov	r9, r3
/usr/local/share/pico/pico-sdk/src/common/pico_time/time.c:225
                alarm_pool_entry_t *new_entry = &pool->entries[new_index];
10000726:	697d      	ldr	r5, [r7, #20]
10000728:	0073      	lsls	r3, r6, #1
1000072a:	199b      	adds	r3, r3, r6
1000072c:	00db      	lsls	r3, r3, #3
1000072e:	18eb      	adds	r3, r5, r3
/usr/local/share/pico/pico-sdk/src/common/pico_time/time.c:226
                int64_t new_entry_time = new_entry->target;
10000730:	6899      	ldr	r1, [r3, #8]
10000732:	68dc      	ldr	r4, [r3, #12]
10000734:	468c      	mov	ip, r1
/usr/local/share/pico/pico-sdk/src/common/pico_time/time.c:227
                int16_t *prev = &pool->ordered_head;
10000736:	2008      	movs	r0, #8
10000738:	5e11      	ldrsh	r1, [r2, r0]
1000073a:	4648      	mov	r0, r9
/usr/local/share/pico/pico-sdk/src/common/pico_time/time.c:229
                while (*prev >= 0 && (new_entry_time - pool->entries[*prev].target) >= 0) {
1000073c:	2900      	cmp	r1, #0
1000073e:	db10      	blt.n	10000762 <alarm_pool_irq_handler+0x20a>
10000740:	9300      	str	r3, [sp, #0]
10000742:	e006      	b.n	10000752 <alarm_pool_irq_handler+0x1fa>
/usr/local/share/pico/pico-sdk/src/common/pico_time/time.c:229 (discriminator 1)
10000744:	42a3      	cmp	r3, r4
10000746:	d040      	beq.n	100007ca <alarm_pool_irq_handler+0x272>
/usr/local/share/pico/pico-sdk/src/common/pico_time/time.c:230
                    prev = &pool->entries[*prev].next;
10000748:	2300      	movs	r3, #0
1000074a:	5ef9      	ldrsh	r1, [r7, r3]
1000074c:	0038      	movs	r0, r7
/usr/local/share/pico/pico-sdk/src/common/pico_time/time.c:229
                while (*prev >= 0 && (new_entry_time - pool->entries[*prev].target) >= 0) {
1000074e:	2900      	cmp	r1, #0
10000750:	db06      	blt.n	10000760 <alarm_pool_irq_handler+0x208>
/usr/local/share/pico/pico-sdk/src/common/pico_time/time.c:229 (discriminator 1)
10000752:	004f      	lsls	r7, r1, #1
10000754:	187f      	adds	r7, r7, r1
10000756:	00ff      	lsls	r7, r7, #3
10000758:	19ef      	adds	r7, r5, r7
1000075a:	68fb      	ldr	r3, [r7, #12]
1000075c:	42a3      	cmp	r3, r4
1000075e:	ddf1      	ble.n	10000744 <alarm_pool_irq_handler+0x1ec>
10000760:	9b00      	ldr	r3, [sp, #0]
/usr/local/share/pico/pico-sdk/src/common/pico_time/time.c:233
                *prev = new_index;
10000762:	8006      	strh	r6, [r0, #0]
/usr/local/share/pico/pico-sdk/src/common/pico_time/time.c:234
                new_index = new_entry->next;
10000764:	2000      	movs	r0, #0
10000766:	5e1e      	ldrsh	r6, [r3, r0]
/usr/local/share/pico/pico-sdk/src/common/pico_time/time.c:235
                new_entry->next = next;
10000768:	8019      	strh	r1, [r3, #0]
/usr/local/share/pico/pico-sdk/src/common/pico_time/time.c:224
            while (new_index >= 0) {
1000076a:	2e00      	cmp	r6, #0
1000076c:	dadc      	bge.n	10000728 <alarm_pool_irq_handler+0x1d0>
1000076e:	0017      	movs	r7, r2
/usr/local/share/pico/pico-sdk/src/common/pico_time/time.c:240
        if (pool->has_pending_cancellations) {
10000770:	79bb      	ldrb	r3, [r7, #6]
10000772:	2b00      	cmp	r3, #0
10000774:	d100      	bne.n	10000778 <alarm_pool_irq_handler+0x220>
10000776:	e715      	b.n	100005a4 <alarm_pool_irq_handler+0x4c>
/usr/local/share/pico/pico-sdk/src/common/pico_time/time.c:241
            pool->has_pending_cancellations = false;
10000778:	2300      	movs	r3, #0
1000077a:	71bb      	strb	r3, [r7, #6]
/usr/local/share/pico/pico-sdk/src/common/pico_time/time.c:243
            int16_t *prev = &pool->ordered_head;
1000077c:	003d      	movs	r5, r7
/usr/local/share/pico/pico-sdk/src/common/pico_time/time.c:245
            for(int16_t index = pool->ordered_head; index != -1; ) {
1000077e:	2308      	movs	r3, #8
10000780:	5ef9      	ldrsh	r1, [r7, r3]
/usr/local/share/pico/pico-sdk/src/common/pico_time/time.c:243
            int16_t *prev = &pool->ordered_head;
10000782:	3508      	adds	r5, #8
/usr/local/share/pico/pico-sdk/src/common/pico_time/time.c:245
            for(int16_t index = pool->ordered_head; index != -1; ) {
10000784:	1c4b      	adds	r3, r1, #1
10000786:	d100      	bne.n	1000078a <alarm_pool_irq_handler+0x232>
10000788:	e72f      	b.n	100005ea <alarm_pool_irq_handler+0x92>
/usr/local/share/pico/pico-sdk/src/common/pico_time/time.c:246
                alarm_pool_entry_t *entry = &pool->entries[index];
1000078a:	697c      	ldr	r4, [r7, #20]
1000078c:	0008      	movs	r0, r1
1000078e:	46a4      	mov	ip, r4
10000790:	e003      	b.n	1000079a <alarm_pool_irq_handler+0x242>
/usr/local/share/pico/pico-sdk/src/common/pico_time/time.c:258
                    prev = &entry->next;
10000792:	0035      	movs	r5, r6
/usr/local/share/pico/pico-sdk/src/common/pico_time/time.c:245 (discriminator 1)
            for(int16_t index = pool->ordered_head; index != -1; ) {
10000794:	1c4b      	adds	r3, r1, #1
10000796:	d100      	bne.n	1000079a <alarm_pool_irq_handler+0x242>
10000798:	e706      	b.n	100005a8 <alarm_pool_irq_handler+0x50>
/usr/local/share/pico/pico-sdk/src/common/pico_time/time.c:246
                alarm_pool_entry_t *entry = &pool->entries[index];
1000079a:	004b      	lsls	r3, r1, #1
1000079c:	185b      	adds	r3, r3, r1
1000079e:	000a      	movs	r2, r1
100007a0:	4661      	mov	r1, ip
100007a2:	00db      	lsls	r3, r3, #3
100007a4:	18ce      	adds	r6, r1, r3
/usr/local/share/pico/pico-sdk/src/common/pico_time/time.c:247
                int16_t next = entry->next;
100007a6:	5ec9      	ldrsh	r1, [r1, r3]
/usr/local/share/pico/pico-sdk/src/common/pico_time/time.c:248
                if ((int16_t)entry->sequence < 0) {
100007a8:	8873      	ldrh	r3, [r6, #2]
100007aa:	b21b      	sxth	r3, r3
100007ac:	2b00      	cmp	r3, #0
100007ae:	daf0      	bge.n	10000792 <alarm_pool_irq_handler+0x23a>
/usr/local/share/pico/pico-sdk/src/common/pico_time/time.c:250
                    entry->target = -1;
100007b0:	2301      	movs	r3, #1
100007b2:	425b      	negs	r3, r3
100007b4:	17dc      	asrs	r4, r3, #31
100007b6:	60b3      	str	r3, [r6, #8]
100007b8:	60f4      	str	r4, [r6, #12]
/usr/local/share/pico/pico-sdk/src/common/pico_time/time.c:251
                    if (index != pool->ordered_head) {
100007ba:	4282      	cmp	r2, r0
100007bc:	d0ea      	beq.n	10000794 <alarm_pool_irq_handler+0x23c>
/usr/local/share/pico/pico-sdk/src/common/pico_time/time.c:253
                        *prev = entry->next;
100007be:	8029      	strh	r1, [r5, #0]
/usr/local/share/pico/pico-sdk/src/common/pico_time/time.c:254
                        entry->next = pool->ordered_head;
100007c0:	893b      	ldrh	r3, [r7, #8]
/usr/local/share/pico/pico-sdk/src/common/pico_time/time.c:255
                        pool->ordered_head = index;
100007c2:	0010      	movs	r0, r2
/usr/local/share/pico/pico-sdk/src/common/pico_time/time.c:254
                        entry->next = pool->ordered_head;
100007c4:	8033      	strh	r3, [r6, #0]
/usr/local/share/pico/pico-sdk/src/common/pico_time/time.c:255
                        pool->ordered_head = index;
100007c6:	813a      	strh	r2, [r7, #8]
100007c8:	e7e4      	b.n	10000794 <alarm_pool_irq_handler+0x23c>
/usr/local/share/pico/pico-sdk/src/common/pico_time/time.c:229 (discriminator 1)
                while (*prev >= 0 && (new_entry_time - pool->entries[*prev].target) >= 0) {
100007ca:	68bb      	ldr	r3, [r7, #8]
100007cc:	4563      	cmp	r3, ip
100007ce:	d9bb      	bls.n	10000748 <alarm_pool_irq_handler+0x1f0>
100007d0:	e7c6      	b.n	10000760 <alarm_pool_irq_handler+0x208>
/usr/local/share/pico/pico-sdk/src/common/pico_time/time.c:271
        if (earliest_target != -1) { // cancelled alarm has target of -1
100007d2:	1c63      	adds	r3, r4, #1
100007d4:	d000      	beq.n	100007d8 <alarm_pool_irq_handler+0x280>
100007d6:	e6f3      	b.n	100005c0 <alarm_pool_irq_handler+0x68>
100007d8:	e6ff      	b.n	100005da <alarm_pool_irq_handler+0x82>
/usr/local/share/pico/pico-sdk/src/common/pico_time/time.c:172
                        repeating_timer_t *rpt = (repeating_timer_t *)earliest_entry->user_data;
100007da:	464b      	mov	r3, r9
100007dc:	695b      	ldr	r3, [r3, #20]
100007de:	469a      	mov	sl, r3
/usr/local/share/pico/pico-sdk/src/common/pico_time/time.c:173
                        delta = rpt->callback(rpt) ? rpt->delay_us : 0;
100007e0:	691b      	ldr	r3, [r3, #16]
100007e2:	4650      	mov	r0, sl
100007e4:	4798      	blx	r3
100007e6:	2800      	cmp	r0, #0
100007e8:	d123      	bne.n	10000832 <alarm_pool_irq_handler+0x2da>
/usr/local/share/pico/pico-sdk/src/common/pico_time/time.c:206
                    pool->ordered_head = earliest_entry->next;
100007ea:	464b      	mov	r3, r9
100007ec:	881b      	ldrh	r3, [r3, #0]
/usr/local/share/pico/pico-sdk/src/common/pico_time/time.c:208
                    uint32_t save = spin_lock_blocking(pool->lock);
100007ee:	693a      	ldr	r2, [r7, #16]
/usr/local/share/pico/pico-sdk/src/common/pico_time/time.c:206
                    pool->ordered_head = earliest_entry->next;
100007f0:	813b      	strh	r3, [r7, #8]
save_and_disable_interrupts():
/usr/local/share/pico/pico-sdk/src/rp2_common/hardware_sync/include/hardware/sync.h:245
    pico_default_asm_volatile (
100007f2:	f3ef 8310 	mrs	r3, PRIMASK
100007f6:	b672      	cpsid	i
spin_lock_unsafe_blocking():
/usr/local/share/pico/pico-sdk/src/rp2_common/hardware_sync_spin_lock/include/hardware/sync/spin_lock.h:265
    while (__builtin_expect(!*lock, 0)) { // read from spinlock register (tries to acquire the lock)
100007f8:	6811      	ldr	r1, [r2, #0]
100007fa:	2900      	cmp	r1, #0
100007fc:	d0fc      	beq.n	100007f8 <alarm_pool_irq_handler+0x2a0>
__dmb():
/usr/local/share/pico/pico-sdk/src/rp2_common/hardware_sync/include/hardware/sync.h:136
    pico_default_asm_volatile ("dmb" : : : "memory");
100007fe:	f3bf 8f5f 	dmb	sy
alarm_pool_irq_handler():
/usr/local/share/pico/pico-sdk/src/common/pico_time/time.c:209
                    earliest_entry->next = pool->free_head;
10000802:	4649      	mov	r1, r9
10000804:	887a      	ldrh	r2, [r7, #2]
10000806:	800a      	strh	r2, [r1, #0]
/usr/local/share/pico/pico-sdk/src/common/pico_time/time.c:211
                    spin_unlock(pool->lock, save);
10000808:	693a      	ldr	r2, [r7, #16]
/usr/local/share/pico/pico-sdk/src/common/pico_time/time.c:210
                    pool->free_head = earliest_index;
1000080a:	807e      	strh	r6, [r7, #2]
__dmb():
/usr/local/share/pico/pico-sdk/src/rp2_common/hardware_sync/include/hardware/sync.h:136
1000080c:	f3bf 8f5f 	dmb	sy
spin_unlock_unsafe():
/usr/local/share/pico/pico-sdk/src/rp2_common/hardware_sync_spin_lock/include/hardware/sync/spin_lock.h:289
    *lock = 0; // write to spinlock register (release lock)
10000810:	2100      	movs	r1, #0
10000812:	6011      	str	r1, [r2, #0]
restore_interrupts_from_disabled():
/usr/local/share/pico/pico-sdk/src/rp2_common/hardware_sync/include/hardware/sync.h:289
    pico_default_asm_volatile ("msr PRIMASK,%0"::"r" (status) : "memory" );
10000814:	f383 8810 	msr	PRIMASK, r3
spin_unlock():
/usr/local/share/pico/pico-sdk/src/rp2_common/hardware_sync_spin_lock/include/hardware/sync/spin_lock.h:335
 * \sa spin_lock_blocking()
 */
__force_inline static void spin_unlock(spin_lock_t *lock, uint32_t saved_irq) {
    spin_unlock_unsafe(lock);
    restore_interrupts_from_disabled(saved_irq);
}
10000818:	e6bb      	b.n	10000592 <alarm_pool_irq_handler+0x3a>
alarm_pool_irq_handler():
/usr/local/share/pico/pico-sdk/src/common/pico_time/time.c:163
            if (((int64_t)ta_time_us_64(timer) - earliest_target) >= 0) {
1000081a:	4284      	cmp	r4, r0
1000081c:	d800      	bhi.n	10000820 <alarm_pool_irq_handler+0x2c8>
1000081e:	e6fd      	b.n	1000061c <alarm_pool_irq_handler+0xc4>
10000820:	e6b7      	b.n	10000592 <alarm_pool_irq_handler+0x3a>
ta_time_us_64():
/usr/local/share/pico/pico-sdk/src/rp2_common/pico_time_adapter/include/pico/time_adapter.h:65
10000822:	480c      	ldr	r0, [pc, #48]	@ (10000854 <alarm_pool_irq_handler+0x2fc>)
10000824:	f000 f9a0 	bl	10000b68 <timer_time_us_64>
alarm_pool_irq_handler():
/usr/local/share/pico/pico-sdk/src/common/pico_time/time.c:189
                        next_time = (int64_t) ta_time_us_64(timer) + delta;
10000828:	9b00      	ldr	r3, [sp, #0]
1000082a:	9c01      	ldr	r4, [sp, #4]
1000082c:	18c0      	adds	r0, r0, r3
1000082e:	4161      	adcs	r1, r4
10000830:	e71a      	b.n	10000668 <alarm_pool_irq_handler+0x110>
/usr/local/share/pico/pico-sdk/src/common/pico_time/time.c:173 (discriminator 1)
                        delta = rpt->callback(rpt) ? rpt->delay_us : 0;
10000832:	4653      	mov	r3, sl
10000834:	681a      	ldr	r2, [r3, #0]
10000836:	685b      	ldr	r3, [r3, #4]
10000838:	9200      	str	r2, [sp, #0]
1000083a:	9301      	str	r3, [sp, #4]
1000083c:	e704      	b.n	10000648 <alarm_pool_irq_handler+0xf0>
/usr/local/share/pico/pico-sdk/src/common/pico_time/time.c:198 (discriminator 1)
                        while (*prev >= 0 && (next_time - pool->entries[*prev].target) >= 0) {
1000083e:	4582      	cmp	sl, r0
10000840:	d800      	bhi.n	10000844 <alarm_pool_irq_handler+0x2ec>
10000842:	e736      	b.n	100006b2 <alarm_pool_irq_handler+0x15a>
10000844:	e746      	b.n	100006d4 <alarm_pool_irq_handler+0x17c>
10000846:	46c0      	nop			@ (mov r8, r8)
10000848:	200005bc 	.word	0x200005bc
1000084c:	4005703c 	.word	0x4005703c
10000850:	10000559 	.word	0x10000559
10000854:	40054000 	.word	0x40054000

10000858 <runtime_init_default_alarm_pool>:
runtime_init_default_alarm_pool():
/usr/local/share/pico/pico-sdk/src/common/pico_time/time.c:79
void __weak runtime_init_default_alarm_pool(void) {
10000858:	b570      	push	{r4, r5, r6, lr}
default_alarm_pool_initialized():
/usr/local/share/pico/pico-sdk/src/common/pico_time/time.c:54
    return default_alarm_pool.lock != NULL;
1000085a:	4c2e      	ldr	r4, [pc, #184]	@ (10000914 <runtime_init_default_alarm_pool+0xbc>)
runtime_init_default_alarm_pool():
/usr/local/share/pico/pico-sdk/src/common/pico_time/time.c:82
    if (!default_alarm_pool_initialized()) {
1000085c:	6925      	ldr	r5, [r4, #16]
1000085e:	2d00      	cmp	r5, #0
10000860:	d004      	beq.n	1000086c <runtime_init_default_alarm_pool+0x14>
/usr/local/share/pico/pico-sdk/src/common/pico_time/time.c:90
    lock_init(&sleep_notifier, PICO_SPINLOCK_ID_TIMER);
10000862:	210a      	movs	r1, #10
10000864:	482c      	ldr	r0, [pc, #176]	@ (10000918 <runtime_init_default_alarm_pool+0xc0>)
10000866:	f7ff fe2b 	bl	100004c0 <lock_init>
/usr/local/share/pico/pico-sdk/src/common/pico_time/time.c:92
}
1000086a:	bd70      	pop	{r4, r5, r6, pc}
ta_hardware_alarm_claim():
/usr/local/share/pico/pico-sdk/src/rp2_common/pico_time_adapter/include/pico/time_adapter.h:87
    irq_remove_handler(irq_num, irq_handler);
    timer_hardware_alarm_unclaim(timer, alarm_num);
}

static inline void ta_hardware_alarm_claim(alarm_pool_timer_t *timer, uint hardware_alaram_num) {
    timer_hardware_alarm_claim(timer_hw_from_timer(timer), hardware_alaram_num);
1000086c:	4e2b      	ldr	r6, [pc, #172]	@ (1000091c <runtime_init_default_alarm_pool+0xc4>)
1000086e:	2103      	movs	r1, #3
10000870:	0030      	movs	r0, r6
10000872:	f000 f96f 	bl	10000b54 <timer_hardware_alarm_claim>
alarm_pool_post_alloc_init():
/usr/local/share/pico/pico-sdk/src/common/pico_time/time.c:282
    pool->timer = timer;
10000876:	60e6      	str	r6, [r4, #12]
/usr/local/share/pico/pico-sdk/src/common/pico_time/time.c:283
    pool->lock = spin_lock_instance(next_striped_spin_lock_num());
10000878:	f7ff fdba 	bl	100003f0 <next_striped_spin_lock_num>
spin_lock_instance():
/usr/local/share/pico/pico-sdk/src/rp2_common/hardware_sync_spin_lock/include/hardware/sync/spin_lock.h:230
    return (spin_lock_t *) (SIO_BASE + SIO_SPINLOCK0_OFFSET + lock_num * 4);
1000087c:	4b28      	ldr	r3, [pc, #160]	@ (10000920 <runtime_init_default_alarm_pool+0xc8>)
alarm_pool_post_alloc_init():
/usr/local/share/pico/pico-sdk/src/common/pico_time/time.c:284
    pool->timer_alarm_num = (uint8_t) hardware_alarm_num;
1000087e:	2203      	movs	r2, #3
spin_lock_instance():
/usr/local/share/pico/pico-sdk/src/rp2_common/hardware_sync_spin_lock/include/hardware/sync/spin_lock.h:230
10000880:	469c      	mov	ip, r3
get_core_num():
/usr/local/share/pico/pico-sdk/src/rp2040/pico_platform/include/pico/platform.h:115
    return (*(uint32_t *) (SIO_BASE + SIO_CPUID_OFFSET));
10000882:	23d0      	movs	r3, #208	@ 0xd0
alarm_pool_post_alloc_init():
/usr/local/share/pico/pico-sdk/src/common/pico_time/time.c:284
10000884:	7022      	strb	r2, [r4, #0]
get_core_num():
/usr/local/share/pico/pico-sdk/src/rp2040/pico_platform/include/pico/platform.h:115
10000886:	061b      	lsls	r3, r3, #24
alarm_pool_post_alloc_init():
/usr/local/share/pico/pico-sdk/src/common/pico_time/time.c:287
    pool->core_num = (uint8_t) get_core_num();
10000888:	681b      	ldr	r3, [r3, #0]
/usr/local/share/pico/pico-sdk/src/common/pico_time/time.c:288
    pool->new_head = pool->ordered_head = -1;
1000088a:	2101      	movs	r1, #1
/usr/local/share/pico/pico-sdk/src/common/pico_time/time.c:287
    pool->core_num = (uint8_t) get_core_num();
1000088c:	7063      	strb	r3, [r4, #1]
/usr/local/share/pico/pico-sdk/src/common/pico_time/time.c:288
    pool->new_head = pool->ordered_head = -1;
1000088e:	4b25      	ldr	r3, [pc, #148]	@ (10000924 <runtime_init_default_alarm_pool+0xcc>)
spin_lock_instance():
/usr/local/share/pico/pico-sdk/src/rp2_common/hardware_sync_spin_lock/include/hardware/sync/spin_lock.h:230
10000890:	4460      	add	r0, ip
alarm_pool_post_alloc_init():
/usr/local/share/pico/pico-sdk/src/common/pico_time/time.c:288
10000892:	60a3      	str	r3, [r4, #8]
/usr/local/share/pico/pico-sdk/src/common/pico_time/time.c:289
    pool->free_head = (int16_t)(max_timers - 1);
10000894:	230f      	movs	r3, #15
spin_lock_instance():
/usr/local/share/pico/pico-sdk/src/rp2_common/hardware_sync_spin_lock/include/hardware/sync/spin_lock.h:230
10000896:	0080      	lsls	r0, r0, #2
alarm_pool_post_alloc_init():
/usr/local/share/pico/pico-sdk/src/common/pico_time/time.c:283
    pool->lock = spin_lock_instance(next_striped_spin_lock_num());
10000898:	6120      	str	r0, [r4, #16]
/usr/local/share/pico/pico-sdk/src/common/pico_time/time.c:291
        pool->entries[i].next = (int16_t)(i-1);
1000089a:	2002      	movs	r0, #2
/usr/local/share/pico/pico-sdk/src/common/pico_time/time.c:289
    pool->free_head = (int16_t)(max_timers - 1);
1000089c:	8063      	strh	r3, [r4, #2]
/usr/local/share/pico/pico-sdk/src/common/pico_time/time.c:291
        pool->entries[i].next = (int16_t)(i-1);
1000089e:	6963      	ldr	r3, [r4, #20]
/usr/local/share/pico/pico-sdk/src/common/pico_time/time.c:288
    pool->new_head = pool->ordered_head = -1;
100008a0:	4249      	negs	r1, r1
100008a2:	80a1      	strh	r1, [r4, #4]
/usr/local/share/pico/pico-sdk/src/common/pico_time/time.c:291
        pool->entries[i].next = (int16_t)(i-1);
100008a4:	8019      	strh	r1, [r3, #0]
100008a6:	3102      	adds	r1, #2
100008a8:	8619      	strh	r1, [r3, #48]	@ 0x30
100008aa:	3147      	adds	r1, #71	@ 0x47
100008ac:	831d      	strh	r5, [r3, #24]
100008ae:	5258      	strh	r0, [r3, r1]
100008b0:	3118      	adds	r1, #24
100008b2:	525a      	strh	r2, [r3, r1]
100008b4:	3275      	adds	r2, #117	@ 0x75
100008b6:	395c      	subs	r1, #92	@ 0x5c
100008b8:	5299      	strh	r1, [r3, r2]
100008ba:	3218      	adds	r2, #24
100008bc:	3101      	adds	r1, #1
100008be:	5299      	strh	r1, [r3, r2]
100008c0:	3218      	adds	r2, #24
100008c2:	3101      	adds	r1, #1
100008c4:	5299      	strh	r1, [r3, r2]
100008c6:	3218      	adds	r2, #24
100008c8:	3101      	adds	r1, #1
100008ca:	5299      	strh	r1, [r3, r2]
100008cc:	3508      	adds	r5, #8
100008ce:	3218      	adds	r2, #24
100008d0:	529d      	strh	r5, [r3, r2]
100008d2:	3102      	adds	r1, #2
100008d4:	3218      	adds	r2, #24
100008d6:	5299      	strh	r1, [r3, r2]
100008d8:	3218      	adds	r2, #24
100008da:	3101      	adds	r1, #1
100008dc:	5299      	strh	r1, [r3, r2]
100008de:	3218      	adds	r2, #24
100008e0:	3101      	adds	r1, #1
100008e2:	5299      	strh	r1, [r3, r2]
100008e4:	3218      	adds	r2, #24
100008e6:	3101      	adds	r1, #1
100008e8:	5299      	strh	r1, [r3, r2]
100008ea:	3218      	adds	r2, #24
100008ec:	3101      	adds	r1, #1
100008ee:	5299      	strh	r1, [r3, r2]
100008f0:	3218      	adds	r2, #24
100008f2:	3101      	adds	r1, #1
100008f4:	5299      	strh	r1, [r3, r2]
/usr/local/share/pico/pico-sdk/src/common/pico_time/time.c:293
    pools[ta_timer_num(timer)][hardware_alarm_num] = pool;
100008f6:	4b0c      	ldr	r3, [pc, #48]	@ (10000928 <runtime_init_default_alarm_pool+0xd0>)
ta_enable_irq_handler():
/usr/local/share/pico/pico-sdk/src/rp2_common/pico_time_adapter/include/pico/time_adapter.h:72
    irq_set_exclusive_handler(irq_num, irq_handler);
100008f8:	490c      	ldr	r1, [pc, #48]	@ (1000092c <runtime_init_default_alarm_pool+0xd4>)
alarm_pool_post_alloc_init():
/usr/local/share/pico/pico-sdk/src/common/pico_time/time.c:293
100008fa:	60dc      	str	r4, [r3, #12]
ta_enable_irq_handler():
/usr/local/share/pico/pico-sdk/src/rp2_common/pico_time_adapter/include/pico/time_adapter.h:72
100008fc:	3001      	adds	r0, #1
/usr/local/share/pico/pico-sdk/src/rp2_common/pico_time_adapter/include/pico/time_adapter.h:71
    timer_hw_from_timer(timer)->armed = 1u << alarm_num;
100008fe:	6235      	str	r5, [r6, #32]
/usr/local/share/pico/pico-sdk/src/rp2_common/pico_time_adapter/include/pico/time_adapter.h:72
    irq_set_exclusive_handler(irq_num, irq_handler);
10000900:	f7ff fdb4 	bl	1000046c <irq_set_exclusive_handler>
/usr/local/share/pico/pico-sdk/src/rp2_common/pico_time_adapter/include/pico/time_adapter.h:73
    irq_set_enabled(irq_num, true);
10000904:	2101      	movs	r1, #1
10000906:	2003      	movs	r0, #3
10000908:	f7ff fd9e 	bl	10000448 <irq_set_enabled>
hw_set_bits():
/usr/local/share/pico/pico-sdk/src/rp2_common/hardware_base/include/hardware/address_mapped.h:136
    *(io_rw_32 *) hw_set_alias_untyped((volatile void *) addr) = mask;
1000090c:	4b08      	ldr	r3, [pc, #32]	@ (10000930 <runtime_init_default_alarm_pool+0xd8>)
1000090e:	601d      	str	r5, [r3, #0]
ta_enable_irq_handler():
/usr/local/share/pico/pico-sdk/src/rp2_common/pico_time_adapter/include/pico/time_adapter.h:75
}
10000910:	e7a7      	b.n	10000862 <runtime_init_default_alarm_pool+0xa>
10000912:	46c0      	nop			@ (mov r8, r8)
10000914:	2000019c 	.word	0x2000019c
10000918:	200005d0 	.word	0x200005d0
1000091c:	40054000 	.word	0x40054000
10000920:	34000040 	.word	0x34000040
10000924:	0010ffff 	.word	0x0010ffff
10000928:	200005bc 	.word	0x200005bc
1000092c:	10000559 	.word	0x10000559
10000930:	40056038 	.word	0x40056038

10000934 <alarm_pool_add_alarm_at_force_in_context>:
alarm_pool_add_alarm_at_force_in_context():
/usr/local/share/pico/pico-sdk/src/common/pico_time/time.c:322
                                                    void *user_data) {
10000934:	b570      	push	{r4, r5, r6, lr}
10000936:	0001      	movs	r1, r0
/usr/local/share/pico/pico-sdk/src/common/pico_time/time.c:324
    uint32_t save = spin_lock_blocking(pool->lock);
10000938:	6904      	ldr	r4, [r0, #16]
save_and_disable_interrupts():
/usr/local/share/pico/pico-sdk/src/rp2_common/hardware_sync/include/hardware/sync.h:245
    pico_default_asm_volatile (
1000093a:	f3ef 8c10 	mrs	ip, PRIMASK
1000093e:	b672      	cpsid	i
spin_lock_unsafe_blocking():
/usr/local/share/pico/pico-sdk/src/rp2_common/hardware_sync_spin_lock/include/hardware/sync/spin_lock.h:265
    while (__builtin_expect(!*lock, 0)) { // read from spinlock register (tries to acquire the lock)
10000940:	6820      	ldr	r0, [r4, #0]
10000942:	2800      	cmp	r0, #0
10000944:	d0fc      	beq.n	10000940 <alarm_pool_add_alarm_at_force_in_context+0xc>
__dmb():
/usr/local/share/pico/pico-sdk/src/rp2_common/hardware_sync/include/hardware/sync.h:136
    pico_default_asm_volatile ("dmb" : : : "memory");
10000946:	f3bf 8f5f 	dmb	sy
alarm_pool_add_alarm_at_force_in_context():
/usr/local/share/pico/pico-sdk/src/common/pico_time/time.c:325
    int16_t index = pool->free_head;
1000094a:	2002      	movs	r0, #2
1000094c:	5e0d      	ldrsh	r5, [r1, r0]
/usr/local/share/pico/pico-sdk/src/common/pico_time/time.c:326
    alarm_pool_entry_t *entry = &pool->entries[index];
1000094e:	694c      	ldr	r4, [r1, #20]
10000950:	0068      	lsls	r0, r5, #1
10000952:	1940      	adds	r0, r0, r5
10000954:	00c0      	lsls	r0, r0, #3
10000956:	1824      	adds	r4, r4, r0
/usr/local/share/pico/pico-sdk/src/common/pico_time/time.c:327
    if (index >= 0) {
10000958:	2d00      	cmp	r5, #0
1000095a:	db37      	blt.n	100009cc <alarm_pool_add_alarm_at_force_in_context+0x98>
/usr/local/share/pico/pico-sdk/src/common/pico_time/time.c:329
        pool->free_head = entry->next;
1000095c:	8820      	ldrh	r0, [r4, #0]
1000095e:	8048      	strh	r0, [r1, #2]
/usr/local/share/pico/pico-sdk/src/common/pico_time/time.c:331
    spin_unlock(pool->lock, save);
10000960:	6908      	ldr	r0, [r1, #16]
__dmb():
/usr/local/share/pico/pico-sdk/src/rp2_common/hardware_sync/include/hardware/sync.h:136
10000962:	f3bf 8f5f 	dmb	sy
spin_unlock_unsafe():
/usr/local/share/pico/pico-sdk/src/rp2_common/hardware_sync_spin_lock/include/hardware/sync/spin_lock.h:289
    *lock = 0; // write to spinlock register (release lock)
10000966:	2600      	movs	r6, #0
10000968:	6006      	str	r6, [r0, #0]
restore_interrupts_from_disabled():
/usr/local/share/pico/pico-sdk/src/rp2_common/hardware_sync/include/hardware/sync.h:289
    pico_default_asm_volatile ("msr PRIMASK,%0"::"r" (status) : "memory" );
1000096a:	f38c 8810 	msr	PRIMASK, ip
alarm_pool_add_alarm_at_force_in_context():
/usr/local/share/pico/pico-sdk/src/common/pico_time/time.c:337
    entry->target = (int64_t)to_us_since_boot(time);
1000096e:	60e3      	str	r3, [r4, #12]
/usr/local/share/pico/pico-sdk/src/common/pico_time/time.c:338
    uint16_t next_sequence = (entry->sequence + 1) & 0x7fff;
10000970:	8863      	ldrh	r3, [r4, #2]
/usr/local/share/pico/pico-sdk/src/common/pico_time/time.c:335
    entry->callback = callback;
10000972:	9804      	ldr	r0, [sp, #16]
/usr/local/share/pico/pico-sdk/src/common/pico_time/time.c:338
    uint16_t next_sequence = (entry->sequence + 1) & 0x7fff;
10000974:	3301      	adds	r3, #1
/usr/local/share/pico/pico-sdk/src/common/pico_time/time.c:335
    entry->callback = callback;
10000976:	6120      	str	r0, [r4, #16]
/usr/local/share/pico/pico-sdk/src/common/pico_time/time.c:338
    uint16_t next_sequence = (entry->sequence + 1) & 0x7fff;
10000978:	045b      	lsls	r3, r3, #17
/usr/local/share/pico/pico-sdk/src/common/pico_time/time.c:336
    entry->user_data = user_data;
1000097a:	9805      	ldr	r0, [sp, #20]
/usr/local/share/pico/pico-sdk/src/common/pico_time/time.c:338
    uint16_t next_sequence = (entry->sequence + 1) & 0x7fff;
1000097c:	0c5b      	lsrs	r3, r3, #17
/usr/local/share/pico/pico-sdk/src/common/pico_time/time.c:337
    entry->target = (int64_t)to_us_since_boot(time);
1000097e:	60a2      	str	r2, [r4, #8]
/usr/local/share/pico/pico-sdk/src/common/pico_time/time.c:336
    entry->user_data = user_data;
10000980:	6160      	str	r0, [r4, #20]
/usr/local/share/pico/pico-sdk/src/common/pico_time/time.c:339
    if (!next_sequence) next_sequence = 1; // zero is not allowed
10000982:	1c1a      	adds	r2, r3, #0
10000984:	2b00      	cmp	r3, #0
10000986:	d01f      	beq.n	100009c8 <alarm_pool_add_alarm_at_force_in_context+0x94>
10000988:	b293      	uxth	r3, r2
make_alarm_id():
/usr/local/share/pico/pico-sdk/src/common/pico_time/time.c:75
    return index << 16 | counter;
1000098a:	0428      	lsls	r0, r5, #16
alarm_pool_add_alarm_at_force_in_context():
/usr/local/share/pico/pico-sdk/src/common/pico_time/time.c:340
    entry->sequence = next_sequence;
1000098c:	8062      	strh	r2, [r4, #2]
make_alarm_id():
/usr/local/share/pico/pico-sdk/src/common/pico_time/time.c:75
    return index << 16 | counter;
1000098e:	4318      	orrs	r0, r3
alarm_pool_add_alarm_at_force_in_context():
/usr/local/share/pico/pico-sdk/src/common/pico_time/time.c:344
    save = spin_lock_blocking(pool->lock);
10000990:	690a      	ldr	r2, [r1, #16]
save_and_disable_interrupts():
/usr/local/share/pico/pico-sdk/src/rp2_common/hardware_sync/include/hardware/sync.h:245
    pico_default_asm_volatile (
10000992:	f3ef 8c10 	mrs	ip, PRIMASK
10000996:	b672      	cpsid	i
spin_lock_unsafe_blocking():
/usr/local/share/pico/pico-sdk/src/rp2_common/hardware_sync_spin_lock/include/hardware/sync/spin_lock.h:265
    while (__builtin_expect(!*lock, 0)) { // read from spinlock register (tries to acquire the lock)
10000998:	6813      	ldr	r3, [r2, #0]
1000099a:	2b00      	cmp	r3, #0
1000099c:	d0fc      	beq.n	10000998 <alarm_pool_add_alarm_at_force_in_context+0x64>
__dmb():
/usr/local/share/pico/pico-sdk/src/rp2_common/hardware_sync/include/hardware/sync.h:136
    pico_default_asm_volatile ("dmb" : : : "memory");
1000099e:	f3bf 8f5f 	dmb	sy
alarm_pool_add_alarm_at_force_in_context():
/usr/local/share/pico/pico-sdk/src/common/pico_time/time.c:345
    entry->next = pool->new_head;
100009a2:	888b      	ldrh	r3, [r1, #4]
100009a4:	8023      	strh	r3, [r4, #0]
/usr/local/share/pico/pico-sdk/src/common/pico_time/time.c:346
    pool->new_head = index;
100009a6:	808d      	strh	r5, [r1, #4]
/usr/local/share/pico/pico-sdk/src/common/pico_time/time.c:347
    spin_unlock(pool->lock, save);
100009a8:	690b      	ldr	r3, [r1, #16]
__dmb():
/usr/local/share/pico/pico-sdk/src/rp2_common/hardware_sync/include/hardware/sync.h:136
100009aa:	f3bf 8f5f 	dmb	sy
spin_unlock_unsafe():
/usr/local/share/pico/pico-sdk/src/rp2_common/hardware_sync_spin_lock/include/hardware/sync/spin_lock.h:289
    *lock = 0; // write to spinlock register (release lock)
100009ae:	2200      	movs	r2, #0
100009b0:	601a      	str	r2, [r3, #0]
restore_interrupts_from_disabled():
/usr/local/share/pico/pico-sdk/src/rp2_common/hardware_sync/include/hardware/sync.h:289
    pico_default_asm_volatile ("msr PRIMASK,%0"::"r" (status) : "memory" );
100009b2:	f38c 8810 	msr	PRIMASK, ip
alarm_pool_add_alarm_at_force_in_context():
/usr/local/share/pico/pico-sdk/src/common/pico_time/time.c:350
    ta_force_irq(pool->timer, pool->timer_alarm_num);
100009b6:	780b      	ldrb	r3, [r1, #0]
ta_force_irq():
/usr/local/share/pico/pico-sdk/src/rp2_common/pico_time_adapter/include/pico/time_adapter.h:20
    hw_set_bits(&timer_hw_from_timer(timer)->intf, 1u << alarm_num);
100009b8:	3201      	adds	r2, #1
100009ba:	409a      	lsls	r2, r3
100009bc:	68cb      	ldr	r3, [r1, #12]
hw_set_bits():
/usr/local/share/pico/pico-sdk/src/rp2_common/hardware_base/include/hardware/address_mapped.h:136
100009be:	4908      	ldr	r1, [pc, #32]	@ (100009e0 <alarm_pool_add_alarm_at_force_in_context+0xac>)
100009c0:	468c      	mov	ip, r1
100009c2:	4463      	add	r3, ip
100009c4:	601a      	str	r2, [r3, #0]
alarm_pool_add_alarm_at_force_in_context():
/usr/local/share/pico/pico-sdk/src/common/pico_time/time.c:352
}
100009c6:	bd70      	pop	{r4, r5, r6, pc}
100009c8:	2201      	movs	r2, #1
100009ca:	e7dd      	b.n	10000988 <alarm_pool_add_alarm_at_force_in_context+0x54>
/usr/local/share/pico/pico-sdk/src/common/pico_time/time.c:331
    spin_unlock(pool->lock, save);
100009cc:	690b      	ldr	r3, [r1, #16]
__dmb():
/usr/local/share/pico/pico-sdk/src/rp2_common/hardware_sync/include/hardware/sync.h:136
    pico_default_asm_volatile ("dmb" : : : "memory");
100009ce:	f3bf 8f5f 	dmb	sy
spin_unlock_unsafe():
/usr/local/share/pico/pico-sdk/src/rp2_common/hardware_sync_spin_lock/include/hardware/sync/spin_lock.h:289
100009d2:	2200      	movs	r2, #0
100009d4:	601a      	str	r2, [r3, #0]
restore_interrupts_from_disabled():
/usr/local/share/pico/pico-sdk/src/rp2_common/hardware_sync/include/hardware/sync.h:289
    pico_default_asm_volatile ("msr PRIMASK,%0"::"r" (status) : "memory" );
100009d6:	f38c 8810 	msr	PRIMASK, ip
alarm_pool_add_alarm_at_force_in_context():
/usr/local/share/pico/pico-sdk/src/common/pico_time/time.c:332
    if (index < 0) return PICO_ERROR_GENERIC; // PICO_ERROR_INSUFFICIENT_RESOURCES - not using to preserve previous -1 return code
100009da:	2001      	movs	r0, #1
100009dc:	4240      	negs	r0, r0
100009de:	e7f2      	b.n	100009c6 <alarm_pool_add_alarm_at_force_in_context+0x92>
100009e0:	0000203c 	.word	0x0000203c

100009e4 <alarm_pool_cancel_alarm>:
alarm_pool_cancel_alarm():
/usr/local/share/pico/pico-sdk/src/common/pico_time/time.c:354
bool alarm_pool_cancel_alarm(alarm_pool_t *pool, alarm_id_t alarm_id) {
100009e4:	b510      	push	{r4, lr}
/usr/local/share/pico/pico-sdk/src/common/pico_time/time.c:356
    if (index >= pool->num_entries) return false;
100009e6:	8943      	ldrh	r3, [r0, #10]
alarm_index():
/usr/local/share/pico/pico-sdk/src/common/pico_time/time.c:67
    return (int16_t)(id >> 16);
100009e8:	140a      	asrs	r2, r1, #16
alarm_pool_cancel_alarm():
/usr/local/share/pico/pico-sdk/src/common/pico_time/time.c:356
    if (index >= pool->num_entries) return false;
100009ea:	4293      	cmp	r3, r2
100009ec:	dd1a      	ble.n	10000a24 <alarm_pool_cancel_alarm+0x40>
/usr/local/share/pico/pico-sdk/src/common/pico_time/time.c:359
    alarm_pool_entry_t *entry = &pool->entries[index];
100009ee:	0053      	lsls	r3, r2, #1
100009f0:	189b      	adds	r3, r3, r2
100009f2:	6942      	ldr	r2, [r0, #20]
100009f4:	00db      	lsls	r3, r3, #3
100009f6:	18d3      	adds	r3, r2, r3
/usr/local/share/pico/pico-sdk/src/common/pico_time/time.c:360
    uint32_t save = spin_lock_blocking(pool->lock);
100009f8:	6904      	ldr	r4, [r0, #16]
save_and_disable_interrupts():
/usr/local/share/pico/pico-sdk/src/rp2_common/hardware_sync/include/hardware/sync.h:245
    pico_default_asm_volatile (
100009fa:	f3ef 8c10 	mrs	ip, PRIMASK
100009fe:	b672      	cpsid	i
spin_lock_unsafe_blocking():
/usr/local/share/pico/pico-sdk/src/rp2_common/hardware_sync_spin_lock/include/hardware/sync/spin_lock.h:265
    while (__builtin_expect(!*lock, 0)) { // read from spinlock register (tries to acquire the lock)
10000a00:	6822      	ldr	r2, [r4, #0]
10000a02:	2a00      	cmp	r2, #0
10000a04:	d0fc      	beq.n	10000a00 <alarm_pool_cancel_alarm+0x1c>
__dmb():
/usr/local/share/pico/pico-sdk/src/rp2_common/hardware_sync/include/hardware/sync.h:136
    pico_default_asm_volatile ("dmb" : : : "memory");
10000a06:	f3bf 8f5f 	dmb	sy
alarm_pool_cancel_alarm():
/usr/local/share/pico/pico-sdk/src/common/pico_time/time.c:363
    uint current_sequence = entry->sequence;
10000a0a:	885a      	ldrh	r2, [r3, #2]
/usr/local/share/pico/pico-sdk/src/common/pico_time/time.c:364
    if (sequence == current_sequence) {
10000a0c:	0409      	lsls	r1, r1, #16
/usr/local/share/pico/pico-sdk/src/common/pico_time/time.c:363
    uint current_sequence = entry->sequence;
10000a0e:	b294      	uxth	r4, r2
/usr/local/share/pico/pico-sdk/src/common/pico_time/time.c:364
    if (sequence == current_sequence) {
10000a10:	0c09      	lsrs	r1, r1, #16
10000a12:	428a      	cmp	r2, r1
10000a14:	d008      	beq.n	10000a28 <alarm_pool_cancel_alarm+0x44>
/usr/local/share/pico/pico-sdk/src/common/pico_time/time.c:370
    spin_unlock(pool->lock, save);
10000a16:	6903      	ldr	r3, [r0, #16]
__dmb():
/usr/local/share/pico/pico-sdk/src/rp2_common/hardware_sync/include/hardware/sync.h:136
10000a18:	f3bf 8f5f 	dmb	sy
spin_unlock_unsafe():
/usr/local/share/pico/pico-sdk/src/rp2_common/hardware_sync_spin_lock/include/hardware/sync/spin_lock.h:289
    *lock = 0; // write to spinlock register (release lock)
10000a1c:	2200      	movs	r2, #0
10000a1e:	601a      	str	r2, [r3, #0]
restore_interrupts_from_disabled():
/usr/local/share/pico/pico-sdk/src/rp2_common/hardware_sync/include/hardware/sync.h:289
    pico_default_asm_volatile ("msr PRIMASK,%0"::"r" (status) : "memory" );
10000a20:	f38c 8810 	msr	PRIMASK, ip
alarm_pool_cancel_alarm():
/usr/local/share/pico/pico-sdk/src/common/pico_time/time.c:356
    if (index >= pool->num_entries) return false;
10000a24:	2000      	movs	r0, #0
/usr/local/share/pico/pico-sdk/src/common/pico_time/time.c:374
}
10000a26:	bd10      	pop	{r4, pc}
/usr/local/share/pico/pico-sdk/src/common/pico_time/time.c:365
        entry->sequence = (uint16_t)(current_sequence | 0x8000);
10000a28:	2280      	movs	r2, #128	@ 0x80
10000a2a:	0212      	lsls	r2, r2, #8
10000a2c:	4314      	orrs	r4, r2
10000a2e:	805c      	strh	r4, [r3, #2]
/usr/local/share/pico/pico-sdk/src/common/pico_time/time.c:367
        pool->has_pending_cancellations = true;
10000a30:	2301      	movs	r3, #1
/usr/local/share/pico/pico-sdk/src/common/pico_time/time.c:370
    spin_unlock(pool->lock, save);
10000a32:	6902      	ldr	r2, [r0, #16]
/usr/local/share/pico/pico-sdk/src/common/pico_time/time.c:367
        pool->has_pending_cancellations = true;
10000a34:	7183      	strb	r3, [r0, #6]
__dmb():
/usr/local/share/pico/pico-sdk/src/rp2_common/hardware_sync/include/hardware/sync.h:136
    pico_default_asm_volatile ("dmb" : : : "memory");
10000a36:	f3bf 8f5f 	dmb	sy
spin_unlock_unsafe():
/usr/local/share/pico/pico-sdk/src/rp2_common/hardware_sync_spin_lock/include/hardware/sync/spin_lock.h:289
10000a3a:	2100      	movs	r1, #0
10000a3c:	6011      	str	r1, [r2, #0]
restore_interrupts_from_disabled():
/usr/local/share/pico/pico-sdk/src/rp2_common/hardware_sync/include/hardware/sync.h:289
    pico_default_asm_volatile ("msr PRIMASK,%0"::"r" (status) : "memory" );
10000a3e:	f38c 8810 	msr	PRIMASK, ip
hw_set_bits():
/usr/local/share/pico/pico-sdk/src/rp2_common/hardware_base/include/hardware/address_mapped.h:136
10000a42:	4904      	ldr	r1, [pc, #16]	@ (10000a54 <alarm_pool_cancel_alarm+0x70>)
alarm_pool_cancel_alarm():
/usr/local/share/pico/pico-sdk/src/common/pico_time/time.c:372
    if (canceled) ta_force_irq(pool->timer, pool->timer_alarm_num);
10000a44:	7802      	ldrb	r2, [r0, #0]
hw_set_bits():
/usr/local/share/pico/pico-sdk/src/rp2_common/hardware_base/include/hardware/address_mapped.h:136
10000a46:	468c      	mov	ip, r1
ta_force_irq():
/usr/local/share/pico/pico-sdk/src/rp2_common/pico_time_adapter/include/pico/time_adapter.h:20
10000a48:	4093      	lsls	r3, r2
10000a4a:	68c2      	ldr	r2, [r0, #12]
alarm_pool_cancel_alarm():
/usr/local/share/pico/pico-sdk/src/common/pico_time/time.c:368
        canceled = true;
10000a4c:	2001      	movs	r0, #1
hw_set_bits():
/usr/local/share/pico/pico-sdk/src/rp2_common/hardware_base/include/hardware/address_mapped.h:136
10000a4e:	4462      	add	r2, ip
10000a50:	6013      	str	r3, [r2, #0]
ta_force_irq():
/usr/local/share/pico/pico-sdk/src/rp2_common/pico_time_adapter/include/pico/time_adapter.h:21
}
10000a52:	e7e8      	b.n	10000a26 <alarm_pool_cancel_alarm+0x42>
10000a54:	0000203c 	.word	0x0000203c

10000a58 <best_effort_wfe_or_timeout>:
best_effort_wfe_or_timeout():
/usr/local/share/pico/pico-sdk/src/common/pico_time/time.c:443

void sleep_ms(uint32_t ms) {
    sleep_us(ms * 1000ull);
}

bool best_effort_wfe_or_timeout(absolute_time_t timeout_timestamp) {
10000a58:	b5f0      	push	{r4, r5, r6, r7, lr}
10000a5a:	46ce      	mov	lr, r9
10000a5c:	4647      	mov	r7, r8
10000a5e:	b580      	push	{r7, lr}
10000a60:	0004      	movs	r4, r0
10000a62:	000d      	movs	r5, r1
10000a64:	b083      	sub	sp, #12
__get_current_exception():
/usr/local/share/pico/pico-sdk/src/rp2040/pico_platform/include/pico/platform.h:133
    pico_default_asm_volatile ( "mrs %0, ipsr" : "=l" (exception));
10000a66:	f3ef 8705 	mrs	r7, IPSR
best_effort_wfe_or_timeout():
/usr/local/share/pico/pico-sdk/src/common/pico_time/time.c:445
#if !PICO_TIME_DEFAULT_ALARM_POOL_DISABLED
    if (__get_current_exception()) {
10000a6a:	2f00      	cmp	r7, #0
10000a6c:	d00d      	beq.n	10000a8a <best_effort_wfe_or_timeout+0x32>
timer_time_reached():
/usr/local/share/pico/pico-sdk/src/rp2_common/hardware_timer/include/hardware/timer.h:323
 * \sa time_reached
 */
static inline bool timer_time_reached(timer_hw_t *timer, absolute_time_t t) {
    uint64_t target = to_us_since_boot(t);
    uint32_t hi_target = (uint32_t)(target >> 32u);
    uint32_t hi = timer->timerawh;
10000a6e:	4a36      	ldr	r2, [pc, #216]	@ (10000b48 <best_effort_wfe_or_timeout+0xf0>)
10000a70:	2000      	movs	r0, #0
10000a72:	6a53      	ldr	r3, [r2, #36]	@ 0x24
/usr/local/share/pico/pico-sdk/src/rp2_common/hardware_timer/include/hardware/timer.h:324
    return (hi >= hi_target && (timer->timerawl >= (uint32_t) target || hi != hi_target));
10000a74:	428b      	cmp	r3, r1
10000a76:	d303      	bcc.n	10000a80 <best_effort_wfe_or_timeout+0x28>
10000a78:	6a92      	ldr	r2, [r2, #40]	@ 0x28
10000a7a:	3001      	adds	r0, #1
10000a7c:	42a2      	cmp	r2, r4
10000a7e:	d350      	bcc.n	10000b22 <best_effort_wfe_or_timeout+0xca>
best_effort_wfe_or_timeout():
/usr/local/share/pico/pico-sdk/src/common/pico_time/time.c:498
    }
#else
    tight_loop_contents();
    return time_reached(timeout_timestamp);
#endif
}
10000a80:	b003      	add	sp, #12
10000a82:	bcc0      	pop	{r6, r7}
10000a84:	46b9      	mov	r9, r7
10000a86:	46b0      	mov	r8, r6
10000a88:	bdf0      	pop	{r4, r5, r6, r7, pc}
/usr/local/share/pico/pico-sdk/src/common/pico_time/time.c:469
        if (ta_wakes_up_on_or_before(alarm_pool_get_default()->timer, alarm_pool_get_default()->timer_alarm_num,
10000a8a:	4b30      	ldr	r3, [pc, #192]	@ (10000b4c <best_effort_wfe_or_timeout+0xf4>)
10000a8c:	4698      	mov	r8, r3
10000a8e:	68db      	ldr	r3, [r3, #12]
10000a90:	4699      	mov	r9, r3
10000a92:	4643      	mov	r3, r8
ta_wakes_up_on_or_before():
/usr/local/share/pico/pico-sdk/src/rp2_common/pico_time_adapter/include/pico/time_adapter.h:58
    int64_t current = (int64_t)timer_time_us_64(timer_hw_from_timer(timer));
10000a94:	4648      	mov	r0, r9
best_effort_wfe_or_timeout():
/usr/local/share/pico/pico-sdk/src/common/pico_time/time.c:469
10000a96:	781e      	ldrb	r6, [r3, #0]
ta_wakes_up_on_or_before():
/usr/local/share/pico/pico-sdk/src/rp2_common/pico_time_adapter/include/pico/time_adapter.h:58
10000a98:	f000 f866 	bl	10000b68 <timer_time_us_64>
10000a9c:	000b      	movs	r3, r1
/usr/local/share/pico/pico-sdk/src/rp2_common/pico_time_adapter/include/pico/time_adapter.h:60
    uint32_t time_til_alarm = timer_hw_from_timer(timer)->alarm[alarm_num] - (uint32_t)current;
10000a9e:	4649      	mov	r1, r9
/usr/local/share/pico/pico-sdk/src/rp2_common/pico_time_adapter/include/pico/time_adapter.h:58
    int64_t current = (int64_t)timer_time_us_64(timer_hw_from_timer(timer));
10000aa0:	0002      	movs	r2, r0
/usr/local/share/pico/pico-sdk/src/rp2_common/pico_time_adapter/include/pico/time_adapter.h:60
    uint32_t time_til_alarm = timer_hw_from_timer(timer)->alarm[alarm_num] - (uint32_t)current;
10000aa2:	3604      	adds	r6, #4
10000aa4:	00b6      	lsls	r6, r6, #2
10000aa6:	5871      	ldr	r1, [r6, r1]
/usr/local/share/pico/pico-sdk/src/rp2_common/pico_time_adapter/include/pico/time_adapter.h:59
    int64_t time_til_target = target - current;
10000aa8:	0020      	movs	r0, r4
/usr/local/share/pico/pico-sdk/src/rp2_common/pico_time_adapter/include/pico/time_adapter.h:60
    uint32_t time_til_alarm = timer_hw_from_timer(timer)->alarm[alarm_num] - (uint32_t)current;
10000aaa:	1a8e      	subs	r6, r1, r2
/usr/local/share/pico/pico-sdk/src/rp2_common/pico_time_adapter/include/pico/time_adapter.h:59
    int64_t time_til_target = target - current;
10000aac:	0029      	movs	r1, r5
10000aae:	1a80      	subs	r0, r0, r2
10000ab0:	4199      	sbcs	r1, r3
best_effort_wfe_or_timeout():
/usr/local/share/pico/pico-sdk/src/common/pico_time/time.c:469
10000ab2:	428f      	cmp	r7, r1
10000ab4:	dc11      	bgt.n	10000ada <best_effort_wfe_or_timeout+0x82>
10000ab6:	d00e      	beq.n	10000ad6 <best_effort_wfe_or_timeout+0x7e>
__wfe():
/usr/local/share/pico/pico-sdk/src/rp2_common/hardware_sync/include/hardware/sync.h:110
    pico_default_asm_volatile ("wfe");
10000ab8:	bf20      	wfe
timer_time_reached():
/usr/local/share/pico/pico-sdk/src/rp2_common/hardware_timer/include/hardware/timer.h:323
    uint32_t hi = timer->timerawh;
10000aba:	4a23      	ldr	r2, [pc, #140]	@ (10000b48 <best_effort_wfe_or_timeout+0xf0>)
10000abc:	2000      	movs	r0, #0
10000abe:	6a53      	ldr	r3, [r2, #36]	@ 0x24
/usr/local/share/pico/pico-sdk/src/rp2_common/hardware_timer/include/hardware/timer.h:324
    return (hi >= hi_target && (timer->timerawl >= (uint32_t) target || hi != hi_target));
10000ac0:	42ab      	cmp	r3, r5
10000ac2:	d3dd      	bcc.n	10000a80 <best_effort_wfe_or_timeout+0x28>
10000ac4:	6a92      	ldr	r2, [r2, #40]	@ 0x28
10000ac6:	3001      	adds	r0, #1
10000ac8:	42a2      	cmp	r2, r4
10000aca:	d2d9      	bcs.n	10000a80 <best_effort_wfe_or_timeout+0x28>
10000acc:	1aeb      	subs	r3, r5, r3
10000ace:	1e5a      	subs	r2, r3, #1
10000ad0:	4193      	sbcs	r3, r2
10000ad2:	b2d8      	uxtb	r0, r3
10000ad4:	e7d4      	b.n	10000a80 <best_effort_wfe_or_timeout+0x28>
best_effort_wfe_or_timeout():
/usr/local/share/pico/pico-sdk/src/common/pico_time/time.c:469
10000ad6:	4286      	cmp	r6, r0
10000ad8:	d9ee      	bls.n	10000ab8 <best_effort_wfe_or_timeout+0x60>
get_absolute_time():
/usr/local/share/pico/pico-sdk/src/common/pico_time/include/pico/time.h:68
 * \sa sleep_until()
 * \sa time_us_64()
 */
static inline absolute_time_t get_absolute_time(void) {
    absolute_time_t t;
    update_us_since_boot(&t, time_us_64());
10000ada:	f000 f84d 	bl	10000b78 <time_us_64>
absolute_time_diff_us():
/usr/local/share/pico/pico-sdk/src/common/pico_time/include/pico/time.h:162
 * \param to the second timestamp
 * \return the number of microseconds between the two timestamps (positive if `to` is after `from` except
 * in case of overflow)
 */
static inline int64_t absolute_time_diff_us(absolute_time_t from, absolute_time_t to) {
    return (int64_t)(to_us_since_boot(to) - to_us_since_boot(from));
10000ade:	0022      	movs	r2, r4
10000ae0:	002b      	movs	r3, r5
10000ae2:	1a12      	subs	r2, r2, r0
10000ae4:	418b      	sbcs	r3, r1
alarm_pool_add_alarm_at():
/usr/local/share/pico/pico-sdk/src/common/pico_time/time.c:316
        if (absolute_time_diff_us(t, time) < 0) return 0;
10000ae6:	2b00      	cmp	r3, #0
10000ae8:	db20      	blt.n	10000b2c <best_effort_wfe_or_timeout+0xd4>
/usr/local/share/pico/pico-sdk/src/common/pico_time/time.c:318
    return alarm_pool_add_alarm_at_force_in_context(pool, time, callback, user_data);
10000aea:	2300      	movs	r3, #0
10000aec:	9301      	str	r3, [sp, #4]
10000aee:	4b18      	ldr	r3, [pc, #96]	@ (10000b50 <best_effort_wfe_or_timeout+0xf8>)
10000af0:	0022      	movs	r2, r4
10000af2:	9300      	str	r3, [sp, #0]
10000af4:	4640      	mov	r0, r8
10000af6:	002b      	movs	r3, r5
10000af8:	f7ff ff1c 	bl	10000934 <alarm_pool_add_alarm_at_force_in_context>
10000afc:	1e01      	subs	r1, r0, #0
best_effort_wfe_or_timeout():
/usr/local/share/pico/pico-sdk/src/common/pico_time/time.c:478
            if (id <= 0) {
10000afe:	dd15      	ble.n	10000b2c <best_effort_wfe_or_timeout+0xd4>
timer_time_reached():
/usr/local/share/pico/pico-sdk/src/rp2_common/hardware_timer/include/hardware/timer.h:323
    uint32_t hi = timer->timerawh;
10000b00:	4b11      	ldr	r3, [pc, #68]	@ (10000b48 <best_effort_wfe_or_timeout+0xf0>)
/usr/local/share/pico/pico-sdk/src/rp2_common/hardware_timer/include/hardware/timer.h:322
    uint32_t hi_target = (uint32_t)(target >> 32u);
10000b02:	002e      	movs	r6, r5
/usr/local/share/pico/pico-sdk/src/rp2_common/hardware_timer/include/hardware/timer.h:323
    uint32_t hi = timer->timerawh;
10000b04:	6a5a      	ldr	r2, [r3, #36]	@ 0x24
/usr/local/share/pico/pico-sdk/src/rp2_common/hardware_timer/include/hardware/timer.h:324
    return (hi >= hi_target && (timer->timerawl >= (uint32_t) target || hi != hi_target));
10000b06:	4295      	cmp	r5, r2
10000b08:	d81c      	bhi.n	10000b44 <best_effort_wfe_or_timeout+0xec>
10000b0a:	6a9b      	ldr	r3, [r3, #40]	@ 0x28
10000b0c:	42a3      	cmp	r3, r4
10000b0e:	d317      	bcc.n	10000b40 <best_effort_wfe_or_timeout+0xe8>
cancel_alarm():
/usr/local/share/pico/pico-sdk/src/common/pico_time/include/pico/time.h:684
 * \param alarm_id the alarm
 * \return true if the alarm was cancelled, false if it didn't exist
 * \sa alarm_id_t for a note on reuse of IDs
 */
static inline bool cancel_alarm(alarm_id_t alarm_id) {
    return alarm_pool_cancel_alarm(alarm_pool_get_default(), alarm_id);
10000b10:	4640      	mov	r0, r8
10000b12:	f7ff ff67 	bl	100009e4 <alarm_pool_cancel_alarm>
timer_time_reached():
/usr/local/share/pico/pico-sdk/src/rp2_common/hardware_timer/include/hardware/timer.h:323
    uint32_t hi = timer->timerawh;
10000b16:	4a0c      	ldr	r2, [pc, #48]	@ (10000b48 <best_effort_wfe_or_timeout+0xf0>)
10000b18:	2000      	movs	r0, #0
10000b1a:	6a53      	ldr	r3, [r2, #36]	@ 0x24
/usr/local/share/pico/pico-sdk/src/rp2_common/hardware_timer/include/hardware/timer.h:324
    return (hi >= hi_target && (timer->timerawl >= (uint32_t) target || hi != hi_target));
10000b1c:	429e      	cmp	r6, r3
10000b1e:	d8af      	bhi.n	10000a80 <best_effort_wfe_or_timeout+0x28>
10000b20:	e7d0      	b.n	10000ac4 <best_effort_wfe_or_timeout+0x6c>
10000b22:	1a5b      	subs	r3, r3, r1
10000b24:	1e5a      	subs	r2, r3, #1
10000b26:	4193      	sbcs	r3, r2
10000b28:	b2d8      	uxtb	r0, r3
10000b2a:	e7a9      	b.n	10000a80 <best_effort_wfe_or_timeout+0x28>
/usr/local/share/pico/pico-sdk/src/rp2_common/hardware_timer/include/hardware/timer.h:323
    uint32_t hi = timer->timerawh;
10000b2c:	4a06      	ldr	r2, [pc, #24]	@ (10000b48 <best_effort_wfe_or_timeout+0xf0>)
10000b2e:	2000      	movs	r0, #0
10000b30:	6a53      	ldr	r3, [r2, #36]	@ 0x24
/usr/local/share/pico/pico-sdk/src/rp2_common/hardware_timer/include/hardware/timer.h:324
    return (hi >= hi_target && (timer->timerawl >= (uint32_t) target || hi != hi_target));
10000b32:	42ab      	cmp	r3, r5
10000b34:	d3a4      	bcc.n	10000a80 <best_effort_wfe_or_timeout+0x28>
10000b36:	6a92      	ldr	r2, [r2, #40]	@ 0x28
10000b38:	2001      	movs	r0, #1
10000b3a:	42a2      	cmp	r2, r4
10000b3c:	d2a0      	bcs.n	10000a80 <best_effort_wfe_or_timeout+0x28>
10000b3e:	e7c5      	b.n	10000acc <best_effort_wfe_or_timeout+0x74>
10000b40:	4295      	cmp	r5, r2
10000b42:	d1e5      	bne.n	10000b10 <best_effort_wfe_or_timeout+0xb8>
__wfe():
/usr/local/share/pico/pico-sdk/src/rp2_common/hardware_sync/include/hardware/sync.h:110
10000b44:	bf20      	wfe
/usr/local/share/pico/pico-sdk/src/rp2_common/hardware_sync/include/hardware/sync.h:112
}
10000b46:	e7e3      	b.n	10000b10 <best_effort_wfe_or_timeout+0xb8>
10000b48:	40054000 	.word	0x40054000
10000b4c:	2000019c 	.word	0x2000019c
10000b50:	10000529 	.word	0x10000529

10000b54 <timer_hardware_alarm_claim>:
timer_hardware_alarm_claim():
/usr/local/share/pico/pico-sdk/src/rp2_common/hardware_timer/timer.c:21
static uint8_t timer_callbacks_pending[NUM_GENERIC_TIMERS];

static_assert(NUM_ALARMS * NUM_GENERIC_TIMERS <= 8, "");
static uint8_t claimed[NUM_GENERIC_TIMERS];

void timer_hardware_alarm_claim(timer_hw_t *timer, uint alarm_num) {
10000b54:	b510      	push	{r4, lr}
/usr/local/share/pico/pico-sdk/src/rp2_common/hardware_timer/timer.c:23
    check_hardware_alarm_num_param(alarm_num);
    hw_claim_or_assert(&claimed[timer_get_index(timer)], alarm_num, "Hardware alarm %d already claimed");
10000b56:	4a02      	ldr	r2, [pc, #8]	@ (10000b60 <timer_hardware_alarm_claim+0xc>)
10000b58:	4802      	ldr	r0, [pc, #8]	@ (10000b64 <timer_hardware_alarm_claim+0x10>)
10000b5a:	f7ff fc27 	bl	100003ac <hw_claim_or_assert>
/usr/local/share/pico/pico-sdk/src/rp2_common/hardware_timer/timer.c:24
}
10000b5e:	bd10      	pop	{r4, pc}
10000b60:	100016ec 	.word	0x100016ec
10000b64:	20000584 	.word	0x20000584

10000b68 <timer_time_us_64>:
timer_time_us_64():
/usr/local/share/pico/pico-sdk/src/rp2_common/hardware_timer/timer.c:57
int hardware_alarm_claim_unused(bool required) {
    return timer_hardware_alarm_claim_unused(PICO_DEFAULT_TIMER_INSTANCE(), required);
}

/// tag::time_us_64[]
uint64_t timer_time_us_64(timer_hw_t *timer) {
10000b68:	0003      	movs	r3, r0
/usr/local/share/pico/pico-sdk/src/rp2_common/hardware_timer/timer.c:60
    // Need to make sure that the upper 32 bits of the timer
    // don't change, so read that first
    uint32_t hi = timer->timerawh;
10000b6a:	6a41      	ldr	r1, [r0, #36]	@ 0x24
/usr/local/share/pico/pico-sdk/src/rp2_common/hardware_timer/timer.c:64
    uint32_t lo;
    do {
        // Read the lower 32 bits
        lo = timer->timerawl;
10000b6c:	000a      	movs	r2, r1
10000b6e:	6a98      	ldr	r0, [r3, #40]	@ 0x28
/usr/local/share/pico/pico-sdk/src/rp2_common/hardware_timer/timer.c:68
        // Now read the upper 32 bits again and
        // check that it hasn't incremented. If it has loop around
        // and read the lower 32 bits again to get an accurate value
        uint32_t next_hi = timer->timerawh;
10000b70:	6a59      	ldr	r1, [r3, #36]	@ 0x24
/usr/local/share/pico/pico-sdk/src/rp2_common/hardware_timer/timer.c:69
        if (hi == next_hi) break;
10000b72:	428a      	cmp	r2, r1
10000b74:	d1fa      	bne.n	10000b6c <timer_time_us_64+0x4>
/usr/local/share/pico/pico-sdk/src/rp2_common/hardware_timer/timer.c:73
        hi = next_hi;
    } while (true);
    return ((uint64_t) hi << 32u) | lo;
}
10000b76:	4770      	bx	lr

10000b78 <time_us_64>:
/usr/local/share/pico/pico-sdk/src/rp2_common/hardware_timer/timer.c:60
    uint32_t hi = timer->timerawh;
10000b78:	4b03      	ldr	r3, [pc, #12]	@ (10000b88 <time_us_64+0x10>)
10000b7a:	6a59      	ldr	r1, [r3, #36]	@ 0x24
/usr/local/share/pico/pico-sdk/src/rp2_common/hardware_timer/timer.c:64
        lo = timer->timerawl;
10000b7c:	000a      	movs	r2, r1
10000b7e:	6a98      	ldr	r0, [r3, #40]	@ 0x28
/usr/local/share/pico/pico-sdk/src/rp2_common/hardware_timer/timer.c:68
        uint32_t next_hi = timer->timerawh;
10000b80:	6a59      	ldr	r1, [r3, #36]	@ 0x24
/usr/local/share/pico/pico-sdk/src/rp2_common/hardware_timer/timer.c:69
        if (hi == next_hi) break;
10000b82:	4291      	cmp	r1, r2
10000b84:	d1fa      	bne.n	10000b7c <time_us_64+0x4>
time_us_64():
/usr/local/share/pico/pico-sdk/src/rp2_common/hardware_timer/timer.c:127
}
/// \end::busy_wait[]

uint64_t time_us_64(void) {
    return timer_time_us_64(PICO_DEFAULT_TIMER_INSTANCE());
}
10000b86:	4770      	bx	lr
10000b88:	40054000 	.word	0x40054000

10000b8c <clock_configure_int_divider>:
clock_configure_int_divider():
/usr/local/share/pico/pico-sdk/src/rp2_common/hardware_clocks/clocks.c:126
    clock_configure_internal(clock, src, auxsrc, actual_freq, div);
    // Store the configured frequency
    return true;
}

void clock_configure_int_divider(clock_handle_t clock, uint32_t src, uint32_t auxsrc, uint32_t src_freq, uint32_t int_divider) {
10000b8c:	b5f8      	push	{r3, r4, r5, r6, r7, lr}
10000b8e:	46de      	mov	lr, fp
10000b90:	464e      	mov	r6, r9
10000b92:	4657      	mov	r7, sl
10000b94:	4645      	mov	r5, r8
10000b96:	b5e0      	push	{r5, r6, r7, lr}
10000b98:	468b      	mov	fp, r1
10000b9a:	0005      	movs	r5, r0
/usr/local/share/pico/pico-sdk/src/rp2_common/hardware_clocks/clocks.c:127
    clock_configure_internal(clock, src, auxsrc, src_freq / int_divider, int_divider << CLOCKS_CLK_GPOUT0_DIV_INT_LSB);
10000b9c:	990a      	ldr	r1, [sp, #40]	@ 0x28
/usr/local/share/pico/pico-sdk/src/rp2_common/hardware_clocks/clocks.c:126
void clock_configure_int_divider(clock_handle_t clock, uint32_t src, uint32_t auxsrc, uint32_t src_freq, uint32_t int_divider) {
10000b9e:	0018      	movs	r0, r3
10000ba0:	0016      	movs	r6, r2
/usr/local/share/pico/pico-sdk/src/rp2_common/hardware_clocks/clocks.c:127
    clock_configure_internal(clock, src, auxsrc, src_freq / int_divider, int_divider << CLOCKS_CLK_GPOUT0_DIV_INT_LSB);
10000ba2:	f000 fab9 	bl	10001118 <__wrap___aeabi_uidiv>
10000ba6:	9b0a      	ldr	r3, [sp, #40]	@ 0x28
clock_configure_internal():
/usr/local/share/pico/pico-sdk/src/rp2_common/hardware_clocks/clocks.c:41
    clock_hw_t *clock_hw = &clocks_hw->clk[clock];
10000ba8:	006c      	lsls	r4, r5, #1
clock_configure_int_divider():
/usr/local/share/pico/pico-sdk/src/rp2_common/hardware_clocks/clocks.c:127
    clock_configure_internal(clock, src, auxsrc, src_freq / int_divider, int_divider << CLOCKS_CLK_GPOUT0_DIV_INT_LSB);
10000baa:	021f      	lsls	r7, r3, #8
clock_configure_internal():
/usr/local/share/pico/pico-sdk/src/rp2_common/hardware_clocks/clocks.c:41
    clock_hw_t *clock_hw = &clocks_hw->clk[clock];
10000bac:	4b32      	ldr	r3, [pc, #200]	@ (10000c78 <clock_configure_int_divider+0xec>)
10000bae:	1964      	adds	r4, r4, r5
10000bb0:	469c      	mov	ip, r3
10000bb2:	00a4      	lsls	r4, r4, #2
10000bb4:	4464      	add	r4, ip
/usr/local/share/pico/pico-sdk/src/rp2_common/hardware_clocks/clocks.c:46
    if (div > clock_hw->div)
10000bb6:	6863      	ldr	r3, [r4, #4]
clock_configure_int_divider():
/usr/local/share/pico/pico-sdk/src/rp2_common/hardware_clocks/clocks.c:127
    clock_configure_internal(clock, src, auxsrc, src_freq / int_divider, int_divider << CLOCKS_CLK_GPOUT0_DIV_INT_LSB);
10000bb8:	4681      	mov	r9, r0
clock_configure_internal():
/usr/local/share/pico/pico-sdk/src/rp2_common/hardware_clocks/clocks.c:46
    if (div > clock_hw->div)
10000bba:	429f      	cmp	r7, r3
10000bbc:	d900      	bls.n	10000bc0 <clock_configure_int_divider+0x34>
/usr/local/share/pico/pico-sdk/src/rp2_common/hardware_clocks/clocks.c:47
        clock_hw->div = div;
10000bbe:	6067      	str	r7, [r4, #4]
has_glitchless_mux():
/usr/local/share/pico/pico-sdk/src/rp2_common/hardware_clocks/clocks.c:30
    return clock == clk_sys || clock == clk_ref;
10000bc0:	1f2b      	subs	r3, r5, #4
10000bc2:	b2db      	uxtb	r3, r3
10000bc4:	4698      	mov	r8, r3
clock_configure_internal():
/usr/local/share/pico/pico-sdk/src/rp2_common/hardware_clocks/clocks.c:52
    if (has_glitchless_mux(clock) && src == CLOCKS_CLK_SYS_CTRL_SRC_VALUE_CLKSRC_CLK_SYS_AUX) {
10000bc6:	2b01      	cmp	r3, #1
10000bc8:	d930      	bls.n	10000c2c <clock_configure_int_divider+0xa0>
hw_clear_bits():
/usr/local/share/pico/pico-sdk/src/rp2_common/hardware_base/include/hardware/address_mapped.h:146
    *(io_rw_32 *) hw_clear_alias_untyped((volatile void *) addr) = mask;
10000bca:	23c0      	movs	r3, #192	@ 0xc0
10000bcc:	2280      	movs	r2, #128	@ 0x80
10000bce:	019b      	lsls	r3, r3, #6
10000bd0:	18e3      	adds	r3, r4, r3
10000bd2:	0112      	lsls	r2, r2, #4
10000bd4:	601a      	str	r2, [r3, #0]
clock_configure_internal():
/usr/local/share/pico/pico-sdk/src/rp2_common/hardware_clocks/clocks.c:64
        if (configured_freq[clock] > 0) {
10000bd6:	4b29      	ldr	r3, [pc, #164]	@ (10000c7c <clock_configure_int_divider+0xf0>)
10000bd8:	00ad      	lsls	r5, r5, #2
10000bda:	5959      	ldr	r1, [r3, r5]
10000bdc:	469a      	mov	sl, r3
10000bde:	2900      	cmp	r1, #0
10000be0:	d11b      	bne.n	10000c1a <clock_configure_int_divider+0x8e>
/usr/local/share/pico/pico-sdk/src/rp2_common/hardware_clocks/clocks.c:74
    hw_write_masked(&clock_hw->ctrl,
10000be2:	0173      	lsls	r3, r6, #5
hw_write_masked():
/usr/local/share/pico/pico-sdk/src/rp2_common/hardware_base/include/hardware/address_mapped.h:172
    hw_xor_bits(addr, (*addr ^ values) & write_mask);
10000be4:	26e0      	movs	r6, #224	@ 0xe0
10000be6:	6822      	ldr	r2, [r4, #0]
10000be8:	4053      	eors	r3, r2
10000bea:	401e      	ands	r6, r3
hw_xor_bits():
/usr/local/share/pico/pico-sdk/src/rp2_common/hardware_base/include/hardware/address_mapped.h:156
    *(io_rw_32 *) hw_xor_alias_untyped((volatile void *) addr) = mask;
10000bec:	2380      	movs	r3, #128	@ 0x80
clock_configure_internal():
/usr/local/share/pico/pico-sdk/src/rp2_common/hardware_clocks/clocks.c:79
    if (has_glitchless_mux(clock)) {
10000bee:	4642      	mov	r2, r8
hw_xor_bits():
/usr/local/share/pico/pico-sdk/src/rp2_common/hardware_base/include/hardware/address_mapped.h:156
10000bf0:	015b      	lsls	r3, r3, #5
10000bf2:	18e3      	adds	r3, r4, r3
10000bf4:	601e      	str	r6, [r3, #0]
clock_configure_internal():
/usr/local/share/pico/pico-sdk/src/rp2_common/hardware_clocks/clocks.c:79
10000bf6:	2a01      	cmp	r2, #1
10000bf8:	d930      	bls.n	10000c5c <clock_configure_int_divider+0xd0>
hw_set_bits():
/usr/local/share/pico/pico-sdk/src/rp2_common/hardware_base/include/hardware/address_mapped.h:136
    *(io_rw_32 *) hw_set_alias_untyped((volatile void *) addr) = mask;
10000bfa:	2380      	movs	r3, #128	@ 0x80
10000bfc:	2280      	movs	r2, #128	@ 0x80
10000bfe:	019b      	lsls	r3, r3, #6
10000c00:	18e3      	adds	r3, r4, r3
10000c02:	0112      	lsls	r2, r2, #4
10000c04:	601a      	str	r2, [r3, #0]
clock_configure_internal():
/usr/local/share/pico/pico-sdk/src/rp2_common/hardware_clocks/clocks.c:95
    configured_freq[clock] = actual_freq;
10000c06:	4653      	mov	r3, sl
10000c08:	464a      	mov	r2, r9
/usr/local/share/pico/pico-sdk/src/rp2_common/hardware_clocks/clocks.c:94
    clock_hw->div = div;
10000c0a:	6067      	str	r7, [r4, #4]
/usr/local/share/pico/pico-sdk/src/rp2_common/hardware_clocks/clocks.c:95
    configured_freq[clock] = actual_freq;
10000c0c:	515a      	str	r2, [r3, r5]
clock_configure_int_divider():
/usr/local/share/pico/pico-sdk/src/rp2_common/hardware_clocks/clocks.c:128
}
10000c0e:	bcf0      	pop	{r4, r5, r6, r7}
10000c10:	46bb      	mov	fp, r7
10000c12:	46b2      	mov	sl, r6
10000c14:	46a9      	mov	r9, r5
10000c16:	46a0      	mov	r8, r4
10000c18:	bdf8      	pop	{r3, r4, r5, r6, r7, pc}
clock_configure_internal():
/usr/local/share/pico/pico-sdk/src/rp2_common/hardware_clocks/clocks.c:68
            uint delay_cyc = configured_freq[clk_sys] / configured_freq[clock] + 1;
10000c1a:	6958      	ldr	r0, [r3, #20]
10000c1c:	f000 fa7c 	bl	10001118 <__wrap___aeabi_uidiv>
10000c20:	3001      	adds	r0, #1
/usr/local/share/pico/pico-sdk/src/rp2_common/hardware_clocks/clocks.c:69
            busy_wait_at_least_cycles(delay_cyc * 3);
10000c22:	0043      	lsls	r3, r0, #1
10000c24:	181b      	adds	r3, r3, r0
busy_wait_at_least_cycles():
/usr/local/share/pico/pico-sdk/src/rp2040/pico_platform/include/pico/platform.h:95
    pico_default_asm_volatile(
10000c26:	3b03      	subs	r3, #3
10000c28:	d2fd      	bcs.n	10000c26 <clock_configure_int_divider+0x9a>
/usr/local/share/pico/pico-sdk/src/rp2040/pico_platform/include/pico/platform.h:100
}
10000c2a:	e7da      	b.n	10000be2 <clock_configure_int_divider+0x56>
clock_configure_internal():
/usr/local/share/pico/pico-sdk/src/rp2_common/hardware_clocks/clocks.c:52
    if (has_glitchless_mux(clock) && src == CLOCKS_CLK_SYS_CTRL_SRC_VALUE_CLKSRC_CLK_SYS_AUX) {
10000c2c:	465b      	mov	r3, fp
10000c2e:	2b01      	cmp	r3, #1
10000c30:	d1cb      	bne.n	10000bca <clock_configure_int_divider+0x3e>
hw_clear_bits():
/usr/local/share/pico/pico-sdk/src/rp2_common/hardware_base/include/hardware/address_mapped.h:146
    *(io_rw_32 *) hw_clear_alias_untyped((volatile void *) addr) = mask;
10000c32:	23c0      	movs	r3, #192	@ 0xc0
10000c34:	2203      	movs	r2, #3
10000c36:	019b      	lsls	r3, r3, #6
10000c38:	18e3      	adds	r3, r4, r3
10000c3a:	601a      	str	r2, [r3, #0]
clock_configure_internal():
/usr/local/share/pico/pico-sdk/src/rp2_common/hardware_clocks/clocks.c:54
        while (!(clock_hw->selected & 1u))
10000c3c:	3a02      	subs	r2, #2
10000c3e:	68a3      	ldr	r3, [r4, #8]
10000c40:	421a      	tst	r2, r3
10000c42:	d0fc      	beq.n	10000c3e <clock_configure_int_divider+0xb2>
/usr/local/share/pico/pico-sdk/src/rp2_common/hardware_clocks/clocks.c:74
    hw_write_masked(&clock_hw->ctrl,
10000c44:	0173      	lsls	r3, r6, #5
hw_write_masked():
/usr/local/share/pico/pico-sdk/src/rp2_common/hardware_base/include/hardware/address_mapped.h:172
    hw_xor_bits(addr, (*addr ^ values) & write_mask);
10000c46:	26e0      	movs	r6, #224	@ 0xe0
10000c48:	6822      	ldr	r2, [r4, #0]
10000c4a:	00ad      	lsls	r5, r5, #2
10000c4c:	4053      	eors	r3, r2
10000c4e:	401e      	ands	r6, r3
hw_xor_bits():
/usr/local/share/pico/pico-sdk/src/rp2_common/hardware_base/include/hardware/address_mapped.h:156
    *(io_rw_32 *) hw_xor_alias_untyped((volatile void *) addr) = mask;
10000c50:	2380      	movs	r3, #128	@ 0x80
10000c52:	4a0a      	ldr	r2, [pc, #40]	@ (10000c7c <clock_configure_int_divider+0xf0>)
10000c54:	015b      	lsls	r3, r3, #5
10000c56:	4692      	mov	sl, r2
10000c58:	18e3      	adds	r3, r4, r3
10000c5a:	601e      	str	r6, [r3, #0]
hw_write_masked():
/usr/local/share/pico/pico-sdk/src/rp2_common/hardware_base/include/hardware/address_mapped.h:172
    hw_xor_bits(addr, (*addr ^ values) & write_mask);
10000c5c:	465a      	mov	r2, fp
10000c5e:	6821      	ldr	r1, [r4, #0]
10000c60:	4051      	eors	r1, r2
10000c62:	2203      	movs	r2, #3
10000c64:	400a      	ands	r2, r1
hw_xor_bits():
/usr/local/share/pico/pico-sdk/src/rp2_common/hardware_base/include/hardware/address_mapped.h:156
    *(io_rw_32 *) hw_xor_alias_untyped((volatile void *) addr) = mask;
10000c66:	601a      	str	r2, [r3, #0]
clock_configure_internal():
/usr/local/share/pico/pico-sdk/src/rp2_common/hardware_clocks/clocks.c:84
        while (!(clock_hw->selected & (1u << src)))
10000c68:	2201      	movs	r2, #1
10000c6a:	465b      	mov	r3, fp
10000c6c:	409a      	lsls	r2, r3
10000c6e:	68a3      	ldr	r3, [r4, #8]
10000c70:	421a      	tst	r2, r3
10000c72:	d0fc      	beq.n	10000c6e <clock_configure_int_divider+0xe2>
10000c74:	e7c1      	b.n	10000bfa <clock_configure_int_divider+0x6e>
10000c76:	46c0      	nop			@ (mov r8, r8)
10000c78:	40008000 	.word	0x40008000
10000c7c:	20000588 	.word	0x20000588

10000c80 <clock_configure_undivided>:
clock_configure_undivided():
/usr/local/share/pico/pico-sdk/src/rp2_common/hardware_clocks/clocks.c:130

void clock_configure_undivided(clock_handle_t clock, uint32_t src, uint32_t auxsrc, uint32_t src_freq) {
10000c80:	b5f0      	push	{r4, r5, r6, r7, lr}
10000c82:	4646      	mov	r6, r8
10000c84:	464f      	mov	r7, r9
10000c86:	46d6      	mov	lr, sl
10000c88:	b5c0      	push	{r6, r7, lr}
10000c8a:	001f      	movs	r7, r3
clock_configure_internal():
/usr/local/share/pico/pico-sdk/src/rp2_common/hardware_clocks/clocks.c:41
    clock_hw_t *clock_hw = &clocks_hw->clk[clock];
10000c8c:	4b34      	ldr	r3, [pc, #208]	@ (10000d60 <clock_configure_undivided+0xe0>)
10000c8e:	0044      	lsls	r4, r0, #1
10000c90:	469c      	mov	ip, r3
10000c92:	1824      	adds	r4, r4, r0
10000c94:	00a4      	lsls	r4, r4, #2
10000c96:	4464      	add	r4, ip
/usr/local/share/pico/pico-sdk/src/rp2_common/hardware_clocks/clocks.c:46
    if (div > clock_hw->div)
10000c98:	6863      	ldr	r3, [r4, #4]
clock_configure_undivided():
/usr/local/share/pico/pico-sdk/src/rp2_common/hardware_clocks/clocks.c:130
void clock_configure_undivided(clock_handle_t clock, uint32_t src, uint32_t auxsrc, uint32_t src_freq) {
10000c9a:	4688      	mov	r8, r1
10000c9c:	0016      	movs	r6, r2
clock_configure_internal():
/usr/local/share/pico/pico-sdk/src/rp2_common/hardware_clocks/clocks.c:46
    if (div > clock_hw->div)
10000c9e:	2bff      	cmp	r3, #255	@ 0xff
10000ca0:	d802      	bhi.n	10000ca8 <clock_configure_undivided+0x28>
/usr/local/share/pico/pico-sdk/src/rp2_common/hardware_clocks/clocks.c:47
        clock_hw->div = div;
10000ca2:	2380      	movs	r3, #128	@ 0x80
10000ca4:	005b      	lsls	r3, r3, #1
10000ca6:	6063      	str	r3, [r4, #4]
has_glitchless_mux():
/usr/local/share/pico/pico-sdk/src/rp2_common/hardware_clocks/clocks.c:30
    return clock == clk_sys || clock == clk_ref;
10000ca8:	1f03      	subs	r3, r0, #4
10000caa:	b2db      	uxtb	r3, r3
10000cac:	469a      	mov	sl, r3
clock_configure_internal():
/usr/local/share/pico/pico-sdk/src/rp2_common/hardware_clocks/clocks.c:52
    if (has_glitchless_mux(clock) && src == CLOCKS_CLK_SYS_CTRL_SRC_VALUE_CLKSRC_CLK_SYS_AUX) {
10000cae:	2b01      	cmp	r3, #1
10000cb0:	d930      	bls.n	10000d14 <clock_configure_undivided+0x94>
hw_clear_bits():
/usr/local/share/pico/pico-sdk/src/rp2_common/hardware_base/include/hardware/address_mapped.h:146
    *(io_rw_32 *) hw_clear_alias_untyped((volatile void *) addr) = mask;
10000cb2:	23c0      	movs	r3, #192	@ 0xc0
10000cb4:	2280      	movs	r2, #128	@ 0x80
10000cb6:	019b      	lsls	r3, r3, #6
10000cb8:	18e3      	adds	r3, r4, r3
10000cba:	0112      	lsls	r2, r2, #4
10000cbc:	601a      	str	r2, [r3, #0]
clock_configure_internal():
/usr/local/share/pico/pico-sdk/src/rp2_common/hardware_clocks/clocks.c:64
        if (configured_freq[clock] > 0) {
10000cbe:	4b29      	ldr	r3, [pc, #164]	@ (10000d64 <clock_configure_undivided+0xe4>)
10000cc0:	0085      	lsls	r5, r0, #2
10000cc2:	5959      	ldr	r1, [r3, r5]
10000cc4:	4699      	mov	r9, r3
10000cc6:	2900      	cmp	r1, #0
10000cc8:	d11b      	bne.n	10000d02 <clock_configure_undivided+0x82>
/usr/local/share/pico/pico-sdk/src/rp2_common/hardware_clocks/clocks.c:74
    hw_write_masked(&clock_hw->ctrl,
10000cca:	0173      	lsls	r3, r6, #5
hw_write_masked():
/usr/local/share/pico/pico-sdk/src/rp2_common/hardware_base/include/hardware/address_mapped.h:172
    hw_xor_bits(addr, (*addr ^ values) & write_mask);
10000ccc:	26e0      	movs	r6, #224	@ 0xe0
10000cce:	6822      	ldr	r2, [r4, #0]
10000cd0:	4053      	eors	r3, r2
10000cd2:	401e      	ands	r6, r3
hw_xor_bits():
/usr/local/share/pico/pico-sdk/src/rp2_common/hardware_base/include/hardware/address_mapped.h:156
    *(io_rw_32 *) hw_xor_alias_untyped((volatile void *) addr) = mask;
10000cd4:	2380      	movs	r3, #128	@ 0x80
clock_configure_internal():
/usr/local/share/pico/pico-sdk/src/rp2_common/hardware_clocks/clocks.c:79
    if (has_glitchless_mux(clock)) {
10000cd6:	4652      	mov	r2, sl
hw_xor_bits():
/usr/local/share/pico/pico-sdk/src/rp2_common/hardware_base/include/hardware/address_mapped.h:156
10000cd8:	015b      	lsls	r3, r3, #5
10000cda:	18e3      	adds	r3, r4, r3
10000cdc:	601e      	str	r6, [r3, #0]
clock_configure_internal():
/usr/local/share/pico/pico-sdk/src/rp2_common/hardware_clocks/clocks.c:79
10000cde:	2a01      	cmp	r2, #1
10000ce0:	d930      	bls.n	10000d44 <clock_configure_undivided+0xc4>
hw_set_bits():
/usr/local/share/pico/pico-sdk/src/rp2_common/hardware_base/include/hardware/address_mapped.h:136
    *(io_rw_32 *) hw_set_alias_untyped((volatile void *) addr) = mask;
10000ce2:	2380      	movs	r3, #128	@ 0x80
10000ce4:	2280      	movs	r2, #128	@ 0x80
10000ce6:	019b      	lsls	r3, r3, #6
10000ce8:	18e3      	adds	r3, r4, r3
10000cea:	0112      	lsls	r2, r2, #4
10000cec:	601a      	str	r2, [r3, #0]
clock_configure_internal():
/usr/local/share/pico/pico-sdk/src/rp2_common/hardware_clocks/clocks.c:94
    clock_hw->div = div;
10000cee:	2380      	movs	r3, #128	@ 0x80
10000cf0:	005b      	lsls	r3, r3, #1
10000cf2:	6063      	str	r3, [r4, #4]
/usr/local/share/pico/pico-sdk/src/rp2_common/hardware_clocks/clocks.c:95
    configured_freq[clock] = actual_freq;
10000cf4:	464b      	mov	r3, r9
10000cf6:	515f      	str	r7, [r3, r5]
clock_configure_undivided():
/usr/local/share/pico/pico-sdk/src/rp2_common/hardware_clocks/clocks.c:132
    clock_configure_internal(clock, src, auxsrc, src_freq, 1u << CLOCKS_CLK_GPOUT0_DIV_INT_LSB);
}
10000cf8:	bce0      	pop	{r5, r6, r7}
10000cfa:	46ba      	mov	sl, r7
10000cfc:	46b1      	mov	r9, r6
10000cfe:	46a8      	mov	r8, r5
10000d00:	bdf0      	pop	{r4, r5, r6, r7, pc}
clock_configure_internal():
/usr/local/share/pico/pico-sdk/src/rp2_common/hardware_clocks/clocks.c:68
            uint delay_cyc = configured_freq[clk_sys] / configured_freq[clock] + 1;
10000d02:	6958      	ldr	r0, [r3, #20]
10000d04:	f000 fa08 	bl	10001118 <__wrap___aeabi_uidiv>
10000d08:	3001      	adds	r0, #1
/usr/local/share/pico/pico-sdk/src/rp2_common/hardware_clocks/clocks.c:69
            busy_wait_at_least_cycles(delay_cyc * 3);
10000d0a:	0043      	lsls	r3, r0, #1
10000d0c:	181b      	adds	r3, r3, r0
busy_wait_at_least_cycles():
/usr/local/share/pico/pico-sdk/src/rp2040/pico_platform/include/pico/platform.h:95
    pico_default_asm_volatile(
10000d0e:	3b03      	subs	r3, #3
10000d10:	d2fd      	bcs.n	10000d0e <clock_configure_undivided+0x8e>
/usr/local/share/pico/pico-sdk/src/rp2040/pico_platform/include/pico/platform.h:100
}
10000d12:	e7da      	b.n	10000cca <clock_configure_undivided+0x4a>
clock_configure_internal():
/usr/local/share/pico/pico-sdk/src/rp2_common/hardware_clocks/clocks.c:52
    if (has_glitchless_mux(clock) && src == CLOCKS_CLK_SYS_CTRL_SRC_VALUE_CLKSRC_CLK_SYS_AUX) {
10000d14:	4643      	mov	r3, r8
10000d16:	2b01      	cmp	r3, #1
10000d18:	d1cb      	bne.n	10000cb2 <clock_configure_undivided+0x32>
hw_clear_bits():
/usr/local/share/pico/pico-sdk/src/rp2_common/hardware_base/include/hardware/address_mapped.h:146
    *(io_rw_32 *) hw_clear_alias_untyped((volatile void *) addr) = mask;
10000d1a:	23c0      	movs	r3, #192	@ 0xc0
10000d1c:	2203      	movs	r2, #3
10000d1e:	019b      	lsls	r3, r3, #6
10000d20:	18e3      	adds	r3, r4, r3
10000d22:	601a      	str	r2, [r3, #0]
clock_configure_internal():
/usr/local/share/pico/pico-sdk/src/rp2_common/hardware_clocks/clocks.c:54
        while (!(clock_hw->selected & 1u))
10000d24:	3a02      	subs	r2, #2
10000d26:	68a3      	ldr	r3, [r4, #8]
10000d28:	421a      	tst	r2, r3
10000d2a:	d0fc      	beq.n	10000d26 <clock_configure_undivided+0xa6>
/usr/local/share/pico/pico-sdk/src/rp2_common/hardware_clocks/clocks.c:74
    hw_write_masked(&clock_hw->ctrl,
10000d2c:	0173      	lsls	r3, r6, #5
hw_write_masked():
/usr/local/share/pico/pico-sdk/src/rp2_common/hardware_base/include/hardware/address_mapped.h:172
    hw_xor_bits(addr, (*addr ^ values) & write_mask);
10000d2e:	26e0      	movs	r6, #224	@ 0xe0
10000d30:	6822      	ldr	r2, [r4, #0]
10000d32:	0085      	lsls	r5, r0, #2
10000d34:	4053      	eors	r3, r2
10000d36:	401e      	ands	r6, r3
hw_xor_bits():
/usr/local/share/pico/pico-sdk/src/rp2_common/hardware_base/include/hardware/address_mapped.h:156
    *(io_rw_32 *) hw_xor_alias_untyped((volatile void *) addr) = mask;
10000d38:	2380      	movs	r3, #128	@ 0x80
10000d3a:	4a0a      	ldr	r2, [pc, #40]	@ (10000d64 <clock_configure_undivided+0xe4>)
10000d3c:	015b      	lsls	r3, r3, #5
10000d3e:	4691      	mov	r9, r2
10000d40:	18e3      	adds	r3, r4, r3
10000d42:	601e      	str	r6, [r3, #0]
hw_write_masked():
/usr/local/share/pico/pico-sdk/src/rp2_common/hardware_base/include/hardware/address_mapped.h:172
    hw_xor_bits(addr, (*addr ^ values) & write_mask);
10000d44:	4642      	mov	r2, r8
10000d46:	6821      	ldr	r1, [r4, #0]
10000d48:	4051      	eors	r1, r2
10000d4a:	2203      	movs	r2, #3
10000d4c:	400a      	ands	r2, r1
hw_xor_bits():
/usr/local/share/pico/pico-sdk/src/rp2_common/hardware_base/include/hardware/address_mapped.h:156
    *(io_rw_32 *) hw_xor_alias_untyped((volatile void *) addr) = mask;
10000d4e:	601a      	str	r2, [r3, #0]
clock_configure_internal():
/usr/local/share/pico/pico-sdk/src/rp2_common/hardware_clocks/clocks.c:84
        while (!(clock_hw->selected & (1u << src)))
10000d50:	2301      	movs	r3, #1
10000d52:	4642      	mov	r2, r8
10000d54:	4093      	lsls	r3, r2
10000d56:	68a2      	ldr	r2, [r4, #8]
10000d58:	4213      	tst	r3, r2
10000d5a:	d0fc      	beq.n	10000d56 <clock_configure_undivided+0xd6>
10000d5c:	e7c1      	b.n	10000ce2 <clock_configure_undivided+0x62>
10000d5e:	46c0      	nop			@ (mov r8, r8)
10000d60:	40008000 	.word	0x40008000
10000d64:	20000588 	.word	0x20000588

10000d68 <clock_get_hz>:
clock_get_hz():
/usr/local/share/pico/pico-sdk/src/rp2_common/hardware_clocks/clocks.c:138

/// \end::clock_configure[]

/// \tag::clock_get_hz[]
uint32_t clock_get_hz(clock_handle_t clock) {
    return configured_freq[clock];
10000d68:	4b01      	ldr	r3, [pc, #4]	@ (10000d70 <clock_get_hz+0x8>)
10000d6a:	0080      	lsls	r0, r0, #2
10000d6c:	58c0      	ldr	r0, [r0, r3]
/usr/local/share/pico/pico-sdk/src/rp2_common/hardware_clocks/clocks.c:139
}
10000d6e:	4770      	bx	lr
10000d70:	20000588 	.word	0x20000588

10000d74 <pll_init>:
pll_init():
/usr/local/share/pico/pico-sdk/src/rp2_common/hardware_pll/pll.c:13
#include "hardware/clocks.h"
#include "hardware/pll.h"
#include "hardware/resets.h"

/// \tag::pll_init_calculations[]
void pll_init(PLL pll, uint refdiv, uint vco_freq, uint post_div1, uint post_div2) {
10000d74:	b5f8      	push	{r3, r4, r5, r6, r7, lr}
10000d76:	0004      	movs	r4, r0
/usr/local/share/pico/pico-sdk/src/rp2_common/hardware_pll/pll.c:14
    uint32_t ref_freq = XOSC_HZ / refdiv;
10000d78:	4820      	ldr	r0, [pc, #128]	@ (10000dfc <pll_init+0x88>)
/usr/local/share/pico/pico-sdk/src/rp2_common/hardware_pll/pll.c:13
void pll_init(PLL pll, uint refdiv, uint vco_freq, uint post_div1, uint post_div2) {
10000d7a:	001d      	movs	r5, r3
10000d7c:	0017      	movs	r7, r2
10000d7e:	000e      	movs	r6, r1
/usr/local/share/pico/pico-sdk/src/rp2_common/hardware_pll/pll.c:14
    uint32_t ref_freq = XOSC_HZ / refdiv;
10000d80:	f000 f9ca 	bl	10001118 <__wrap___aeabi_uidiv>
10000d84:	0001      	movs	r1, r0
/usr/local/share/pico/pico-sdk/src/rp2_common/hardware_pll/pll.c:21
    // Check vco freq is in an acceptable range
    assert(vco_freq >= PICO_PLL_VCO_MIN_FREQ_HZ && vco_freq <= PICO_PLL_VCO_MAX_FREQ_HZ);

    // What are we multiplying the reference clock by to get the vco freq
    // (The regs are called div, because you divide the vco output and compare it to the refclk)
    uint32_t fbdiv = vco_freq / ref_freq;
10000d86:	0038      	movs	r0, r7
10000d88:	f000 f9c6 	bl	10001118 <__wrap___aeabi_uidiv>
/usr/local/share/pico/pico-sdk/src/rp2_common/hardware_pll/pll.c:39
    // Check that reference frequency is no greater than vco / 16
    assert(ref_freq <= (vco_freq / 16));

    // div1 feeds into div2 so if div1 is 5 and div2 is 2 then you get a divide by 10
    uint32_t pdiv = (post_div1 << PLL_PRIM_POSTDIV1_LSB) |
                    (post_div2 << PLL_PRIM_POSTDIV2_LSB);
10000d8c:	9b06      	ldr	r3, [sp, #24]
/usr/local/share/pico/pico-sdk/src/rp2_common/hardware_pll/pll.c:38
    uint32_t pdiv = (post_div1 << PLL_PRIM_POSTDIV1_LSB) |
10000d8e:	0429      	lsls	r1, r5, #16
/usr/local/share/pico/pico-sdk/src/rp2_common/hardware_pll/pll.c:39
                    (post_div2 << PLL_PRIM_POSTDIV2_LSB);
10000d90:	031b      	lsls	r3, r3, #12
/usr/local/share/pico/pico-sdk/src/rp2_common/hardware_pll/pll.c:38
    uint32_t pdiv = (post_div1 << PLL_PRIM_POSTDIV1_LSB) |
10000d92:	4319      	orrs	r1, r3
/usr/local/share/pico/pico-sdk/src/rp2_common/hardware_pll/pll.c:42

/// \tag::pll_init_finish[]
    if ((pll->cs & PLL_CS_LOCK_BITS) &&
10000d94:	6823      	ldr	r3, [r4, #0]
10000d96:	2b00      	cmp	r3, #0
10000d98:	db1e      	blt.n	10000dd8 <pll_init+0x64>
/usr/local/share/pico/pico-sdk/src/rp2_common/hardware_pll/pll.c:50
        (pdiv   == (pll->prim & (PLL_PRIM_POSTDIV1_BITS | PLL_PRIM_POSTDIV2_BITS)))) {
        // do not disrupt PLL that is already correctly configured and operating
        return;
    }

    reset_unreset_block_num_wait_blocking(PLL_RESET_NUM(pll));
10000d9a:	4b19      	ldr	r3, [pc, #100]	@ (10000e00 <pll_init+0x8c>)
unreset_block_reg_mask_wait_blocking():
/usr/local/share/pico/pico-sdk/src/rp2_common/hardware_resets/include/hardware/resets.h:119
    hw_clear_bits(reset, mask);
}

static __force_inline void unreset_block_reg_mask_wait_blocking(io_rw_32 *reset, io_ro_32 *reset_done, uint32_t mask) {
    hw_clear_bits(reset, mask);
    while (~*reset_done & mask)
10000d9c:	4d19      	ldr	r5, [pc, #100]	@ (10000e04 <pll_init+0x90>)
pll_init():
/usr/local/share/pico/pico-sdk/src/rp2_common/hardware_pll/pll.c:50
10000d9e:	18e2      	adds	r2, r4, r3
10000da0:	4253      	negs	r3, r2
10000da2:	415a      	adcs	r2, r3
10000da4:	2380      	movs	r3, #128	@ 0x80
10000da6:	015b      	lsls	r3, r3, #5
10000da8:	469c      	mov	ip, r3
10000daa:	0312      	lsls	r2, r2, #12
hw_set_bits():
/usr/local/share/pico/pico-sdk/src/rp2_common/hardware_base/include/hardware/address_mapped.h:136
    *(io_rw_32 *) hw_set_alias_untyped((volatile void *) addr) = mask;
10000dac:	4b16      	ldr	r3, [pc, #88]	@ (10000e08 <pll_init+0x94>)
pll_init():
/usr/local/share/pico/pico-sdk/src/rp2_common/hardware_pll/pll.c:50
10000dae:	4462      	add	r2, ip
hw_set_bits():
/usr/local/share/pico/pico-sdk/src/rp2_common/hardware_base/include/hardware/address_mapped.h:136
10000db0:	601a      	str	r2, [r3, #0]
hw_clear_bits():
/usr/local/share/pico/pico-sdk/src/rp2_common/hardware_base/include/hardware/address_mapped.h:146
    *(io_rw_32 *) hw_clear_alias_untyped((volatile void *) addr) = mask;
10000db2:	4b16      	ldr	r3, [pc, #88]	@ (10000e0c <pll_init+0x98>)
10000db4:	601a      	str	r2, [r3, #0]
unreset_block_reg_mask_wait_blocking():
/usr/local/share/pico/pico-sdk/src/rp2_common/hardware_resets/include/hardware/resets.h:119
10000db6:	0017      	movs	r7, r2
10000db8:	682b      	ldr	r3, [r5, #0]
10000dba:	439f      	bics	r7, r3
10000dbc:	d1fb      	bne.n	10000db6 <pll_init+0x42>
hw_clear_bits():
/usr/local/share/pico/pico-sdk/src/rp2_common/hardware_base/include/hardware/address_mapped.h:146 (discriminator 4)
10000dbe:	4b14      	ldr	r3, [pc, #80]	@ (10000e10 <pll_init+0x9c>)
pll_init():
/usr/local/share/pico/pico-sdk/src/rp2_common/hardware_pll/pll.c:53 (discriminator 4)

    // Load VCO-related dividers before starting VCO
    pll->cs = refdiv;
10000dc0:	6026      	str	r6, [r4, #0]
hw_clear_bits():
/usr/local/share/pico/pico-sdk/src/rp2_common/hardware_base/include/hardware/address_mapped.h:146 (discriminator 4)
10000dc2:	18e2      	adds	r2, r4, r3
10000dc4:	2321      	movs	r3, #33	@ 0x21
pll_init():
/usr/local/share/pico/pico-sdk/src/rp2_common/hardware_pll/pll.c:54 (discriminator 4)
    pll->fbdiv_int = fbdiv;
10000dc6:	60a0      	str	r0, [r4, #8]
hw_clear_bits():
/usr/local/share/pico/pico-sdk/src/rp2_common/hardware_base/include/hardware/address_mapped.h:146 (discriminator 4)
10000dc8:	6013      	str	r3, [r2, #0]
pll_init():
/usr/local/share/pico/pico-sdk/src/rp2_common/hardware_pll/pll.c:63 (discriminator 1)
                     PLL_PWR_VCOPD_BITS; // VCO Power

    hw_clear_bits(&pll->pwr, power);

    // Wait for PLL to lock
    while (!(pll->cs & PLL_CS_LOCK_BITS)) tight_loop_contents();
10000dca:	6823      	ldr	r3, [r4, #0]
10000dcc:	2b00      	cmp	r3, #0
10000dce:	dafc      	bge.n	10000dca <pll_init+0x56>
hw_clear_bits():
/usr/local/share/pico/pico-sdk/src/rp2_common/hardware_base/include/hardware/address_mapped.h:146
10000dd0:	2308      	movs	r3, #8
pll_init():
/usr/local/share/pico/pico-sdk/src/rp2_common/hardware_pll/pll.c:66

    // Set up post dividers
    pll->prim = pdiv;
10000dd2:	60e1      	str	r1, [r4, #12]
hw_clear_bits():
/usr/local/share/pico/pico-sdk/src/rp2_common/hardware_base/include/hardware/address_mapped.h:146
10000dd4:	6013      	str	r3, [r2, #0]
pll_init():
/usr/local/share/pico/pico-sdk/src/rp2_common/hardware_pll/pll.c:71

    // Turn on post divider
    hw_clear_bits(&pll->pwr, PLL_PWR_POSTDIVPD_BITS);
/// \end::pll_init_finish[]
}
10000dd6:	bdf8      	pop	{r3, r4, r5, r6, r7, pc}
/usr/local/share/pico/pico-sdk/src/rp2_common/hardware_pll/pll.c:43 (discriminator 1)
        (refdiv == (pll->cs & PLL_CS_REFDIV_BITS)) &&
10000dd8:	233f      	movs	r3, #63	@ 0x3f
10000dda:	6822      	ldr	r2, [r4, #0]
10000ddc:	4013      	ands	r3, r2
/usr/local/share/pico/pico-sdk/src/rp2_common/hardware_pll/pll.c:42 (discriminator 1)
    if ((pll->cs & PLL_CS_LOCK_BITS) &&
10000dde:	42b3      	cmp	r3, r6
10000de0:	d1db      	bne.n	10000d9a <pll_init+0x26>
/usr/local/share/pico/pico-sdk/src/rp2_common/hardware_pll/pll.c:44
        (fbdiv  == (pll->fbdiv_int & PLL_FBDIV_INT_BITS)) &&
10000de2:	68a3      	ldr	r3, [r4, #8]
10000de4:	051b      	lsls	r3, r3, #20
10000de6:	0d1b      	lsrs	r3, r3, #20
/usr/local/share/pico/pico-sdk/src/rp2_common/hardware_pll/pll.c:43
        (refdiv == (pll->cs & PLL_CS_REFDIV_BITS)) &&
10000de8:	4283      	cmp	r3, r0
10000dea:	d1d6      	bne.n	10000d9a <pll_init+0x26>
/usr/local/share/pico/pico-sdk/src/rp2_common/hardware_pll/pll.c:45
        (pdiv   == (pll->prim & (PLL_PRIM_POSTDIV1_BITS | PLL_PRIM_POSTDIV2_BITS)))) {
10000dec:	22ee      	movs	r2, #238	@ 0xee
10000dee:	68e3      	ldr	r3, [r4, #12]
10000df0:	02d2      	lsls	r2, r2, #11
10000df2:	4013      	ands	r3, r2
/usr/local/share/pico/pico-sdk/src/rp2_common/hardware_pll/pll.c:44
        (fbdiv  == (pll->fbdiv_int & PLL_FBDIV_INT_BITS)) &&
10000df4:	428b      	cmp	r3, r1
10000df6:	d1d0      	bne.n	10000d9a <pll_init+0x26>
10000df8:	e7ed      	b.n	10000dd6 <pll_init+0x62>
10000dfa:	46c0      	nop			@ (mov r8, r8)
10000dfc:	00b71b00 	.word	0x00b71b00
10000e00:	bffd4000 	.word	0xbffd4000
10000e04:	4000c008 	.word	0x4000c008
10000e08:	4000e000 	.word	0x4000e000
10000e0c:	4000f000 	.word	0x4000f000
10000e10:	00003004 	.word	0x00003004

10000e14 <tick_start>:
tick_start():
/usr/local/share/pico/pico-sdk/src/rp2_common/hardware_ticks/ticks.c:16
#if PICO_RP2040
    ((void)tick);
    cycles <<= WATCHDOG_TICK_CYCLES_LSB;
    valid_params_if(HARDWARE_TICKS, cycles <= WATCHDOG_TICK_CYCLES_BITS);
    // On RP2040, this also provides a tick reference to the timer and SysTick
    watchdog_hw->tick = cycles | WATCHDOG_TICK_ENABLE_BITS;
10000e14:	2380      	movs	r3, #128	@ 0x80
10000e16:	4a02      	ldr	r2, [pc, #8]	@ (10000e20 <tick_start+0xc>)
10000e18:	009b      	lsls	r3, r3, #2
10000e1a:	430b      	orrs	r3, r1
10000e1c:	62d3      	str	r3, [r2, #44]	@ 0x2c
/usr/local/share/pico/pico-sdk/src/rp2_common/hardware_ticks/ticks.c:24
    valid_params_if(HARDWARE_TICKS, cycles <= TICKS_WATCHDOG_CYCLES_BITS);
    // On later hardware, separate tick generators for every tick destination.
    ticks_hw->ticks[tick].cycles = cycles;
    ticks_hw->ticks[tick].ctrl = TICKS_WATCHDOG_CTRL_ENABLE_BITS;
#endif
}
10000e1e:	4770      	bx	lr
10000e20:	40058000 	.word	0x40058000

10000e24 <rom_func_lookup>:
rom_hword_as_ptr():
/usr/local/share/pico/pico-sdk/src/rp2_common/pico_bootrom/include/pico/bootrom.h:166
#if PICO_C_COMPILER_IS_GNU && (__GNUC__ >= 12)
// Convert a 16 bit pointer stored at the given rom address into a 32 bit pointer
__force_inline static void *rom_hword_as_ptr(uint16_t rom_address) {
#pragma GCC diagnostic push
#pragma GCC diagnostic ignored "-Warray-bounds"
    return (void *)(uintptr_t)*(uint16_t *)(uintptr_t)rom_address;
10000e24:	2314      	movs	r3, #20
rom_func_lookup():
/usr/local/share/pico/pico-sdk/src/rp2_common/pico_bootrom/bootrom.c:16
#include "hardware/rcp.h"
#endif

/// \tag::table_lookup[]

void *rom_func_lookup(uint32_t code) {
10000e26:	b510      	push	{r4, lr}
10000e28:	0001      	movs	r1, r0
rom_hword_as_ptr():
/usr/local/share/pico/pico-sdk/src/rp2_common/pico_bootrom/include/pico/bootrom.h:166
10000e2a:	8818      	ldrh	r0, [r3, #0]
10000e2c:	3304      	adds	r3, #4
10000e2e:	881b      	ldrh	r3, [r3, #0]
rom_func_lookup_inline():
/usr/local/share/pico/pico-sdk/src/rp2_common/pico_bootrom/include/pico/bootrom.h:197
#pragma GCC diagnostic ignored "-Warray-bounds"
static __force_inline void *rom_func_lookup_inline(uint32_t code) {
#if PICO_RP2040
    rom_table_lookup_fn rom_table_lookup = (rom_table_lookup_fn) rom_hword_as_ptr(BOOTROM_TABLE_LOOKUP_OFFSET);
    uint16_t *func_table = (uint16_t *) rom_hword_as_ptr(BOOTROM_FUNC_TABLE_OFFSET);
    return rom_table_lookup(func_table, code);
10000e30:	4798      	blx	r3
rom_func_lookup():
/usr/local/share/pico/pico-sdk/src/rp2_common/pico_bootrom/bootrom.c:18
    return rom_func_lookup_inline(code);
}
10000e32:	bd10      	pop	{r4, pc}

10000e34 <rom_data_lookup>:
rom_hword_as_ptr():
/usr/local/share/pico/pico-sdk/src/rp2_common/pico_bootrom/include/pico/bootrom.h:166
    return (void *)(uintptr_t)*(uint16_t *)(uintptr_t)rom_address;
10000e34:	2316      	movs	r3, #22
rom_data_lookup():
/usr/local/share/pico/pico-sdk/src/rp2_common/pico_bootrom/bootrom.c:20

void *rom_data_lookup(uint32_t code) {
10000e36:	b510      	push	{r4, lr}
10000e38:	0001      	movs	r1, r0
rom_hword_as_ptr():
/usr/local/share/pico/pico-sdk/src/rp2_common/pico_bootrom/include/pico/bootrom.h:166
10000e3a:	8818      	ldrh	r0, [r3, #0]
10000e3c:	3302      	adds	r3, #2
10000e3e:	881b      	ldrh	r3, [r3, #0]
rom_data_lookup_inline():
/usr/local/share/pico/pico-sdk/src/rp2_common/pico_bootrom/include/pico/bootrom.h:231
#pragma GCC diagnostic ignored "-Warray-bounds"
static __force_inline void *rom_data_lookup_inline(uint32_t code) {
#if PICO_RP2040
    rom_table_lookup_fn rom_table_lookup = (rom_table_lookup_fn) rom_hword_as_ptr(BOOTROM_TABLE_LOOKUP_OFFSET);
    uint16_t *data_table = (uint16_t *) rom_hword_as_ptr(BOOTROM_DATA_TABLE_OFFSET);
    return rom_table_lookup(data_table, code);
10000e40:	4798      	blx	r3
rom_data_lookup():
/usr/local/share/pico/pico-sdk/src/rp2_common/pico_bootrom/bootrom.c:22
    return rom_data_lookup_inline(code);
}
10000e42:	bd10      	pop	{r4, pc}

10000e44 <rom_funcs_lookup>:
rom_funcs_lookup():
/usr/local/share/pico/pico-sdk/src/rp2_common/pico_bootrom/bootrom.c:25
/// \end::table_lookup[]

bool rom_funcs_lookup(uint32_t *table, unsigned int count) {
10000e44:	b5f8      	push	{r3, r4, r5, r6, r7, lr}
10000e46:	4647      	mov	r7, r8
10000e48:	46ce      	mov	lr, r9
10000e4a:	b580      	push	{r7, lr}
10000e4c:	1e0f      	subs	r7, r1, #0
/usr/local/share/pico/pico-sdk/src/rp2_common/pico_bootrom/bootrom.c:27
    bool ok = true;
    for (unsigned int i = 0; i < count; i++) {
10000e4e:	d019      	beq.n	10000e84 <rom_funcs_lookup+0x40>
rom_hword_as_ptr():
/usr/local/share/pico/pico-sdk/src/rp2_common/pico_bootrom/include/pico/bootrom.h:166
    return (void *)(uintptr_t)*(uint16_t *)(uintptr_t)rom_address;
10000e50:	2314      	movs	r3, #20
10000e52:	4699      	mov	r9, r3
10000e54:	3304      	adds	r3, #4
10000e56:	0004      	movs	r4, r0
rom_funcs_lookup():
/usr/local/share/pico/pico-sdk/src/rp2_common/pico_bootrom/bootrom.c:27
10000e58:	2500      	movs	r5, #0
/usr/local/share/pico/pico-sdk/src/rp2_common/pico_bootrom/bootrom.c:26
    bool ok = true;
10000e5a:	2601      	movs	r6, #1
rom_hword_as_ptr():
/usr/local/share/pico/pico-sdk/src/rp2_common/pico_bootrom/include/pico/bootrom.h:166
10000e5c:	4698      	mov	r8, r3
10000e5e:	464b      	mov	r3, r9
10000e60:	8818      	ldrh	r0, [r3, #0]
10000e62:	4643      	mov	r3, r8
rom_func_lookup_inline():
/usr/local/share/pico/pico-sdk/src/rp2_common/pico_bootrom/include/pico/bootrom.h:197
    return rom_table_lookup(func_table, code);
10000e64:	6821      	ldr	r1, [r4, #0]
rom_hword_as_ptr():
/usr/local/share/pico/pico-sdk/src/rp2_common/pico_bootrom/include/pico/bootrom.h:166
    return (void *)(uintptr_t)*(uint16_t *)(uintptr_t)rom_address;
10000e66:	881b      	ldrh	r3, [r3, #0]
rom_func_lookup_inline():
/usr/local/share/pico/pico-sdk/src/rp2_common/pico_bootrom/include/pico/bootrom.h:197
    return rom_table_lookup(func_table, code);
10000e68:	4798      	blx	r3
rom_funcs_lookup():
/usr/local/share/pico/pico-sdk/src/rp2_common/pico_bootrom/bootrom.c:28
        table[i] = (uintptr_t) rom_func_lookup(table[i]);
10000e6a:	c401      	stmia	r4!, {r0}
/usr/local/share/pico/pico-sdk/src/rp2_common/pico_bootrom/bootrom.c:29
        if (!table[i]) ok = false;
10000e6c:	1e43      	subs	r3, r0, #1
10000e6e:	4198      	sbcs	r0, r3
/usr/local/share/pico/pico-sdk/src/rp2_common/pico_bootrom/bootrom.c:27
    for (unsigned int i = 0; i < count; i++) {
10000e70:	3501      	adds	r5, #1
/usr/local/share/pico/pico-sdk/src/rp2_common/pico_bootrom/bootrom.c:29
        if (!table[i]) ok = false;
10000e72:	4240      	negs	r0, r0
10000e74:	4006      	ands	r6, r0
/usr/local/share/pico/pico-sdk/src/rp2_common/pico_bootrom/bootrom.c:27
    for (unsigned int i = 0; i < count; i++) {
10000e76:	42af      	cmp	r7, r5
10000e78:	d1f1      	bne.n	10000e5e <rom_funcs_lookup+0x1a>
/usr/local/share/pico/pico-sdk/src/rp2_common/pico_bootrom/bootrom.c:32
    }
    return ok;
}
10000e7a:	0030      	movs	r0, r6
10000e7c:	bcc0      	pop	{r6, r7}
10000e7e:	46b9      	mov	r9, r7
10000e80:	46b0      	mov	r8, r6
10000e82:	bdf8      	pop	{r3, r4, r5, r6, r7, pc}
/usr/local/share/pico/pico-sdk/src/rp2_common/pico_bootrom/bootrom.c:26
    bool ok = true;
10000e84:	2601      	movs	r6, #1
10000e86:	e7f8      	b.n	10000e7a <rom_funcs_lookup+0x36>

10000e88 <xosc_init>:
xosc_init():
/usr/local/share/pico/pico-sdk/src/rp2_common/hardware_xosc/xosc.c:31
#error PICO_XOSC_STARTUP_DELAY_MULTIPLIER is too large: XOSC STARTUP.DELAY must be < 8192
#endif

void xosc_init(void) {
    // Assumes 1-15 MHz input, checked above.
    xosc_hw->ctrl = XOSC_CTRL_FREQ_RANGE_VALUE_1_15MHZ;
10000e88:	23aa      	movs	r3, #170	@ 0xaa
10000e8a:	4a06      	ldr	r2, [pc, #24]	@ (10000ea4 <xosc_init+0x1c>)
10000e8c:	011b      	lsls	r3, r3, #4
10000e8e:	6013      	str	r3, [r2, #0]
/usr/local/share/pico/pico-sdk/src/rp2_common/hardware_xosc/xosc.c:34

    // Set xosc startup delay
    xosc_hw->startup = STARTUP_DELAY;
10000e90:	238d      	movs	r3, #141	@ 0x8d
10000e92:	005b      	lsls	r3, r3, #1
10000e94:	60d3      	str	r3, [r2, #12]
hw_set_bits():
/usr/local/share/pico/pico-sdk/src/rp2_common/hardware_base/include/hardware/address_mapped.h:136
    *(io_rw_32 *) hw_set_alias_untyped((volatile void *) addr) = mask;
10000e96:	4904      	ldr	r1, [pc, #16]	@ (10000ea8 <xosc_init+0x20>)
10000e98:	4b04      	ldr	r3, [pc, #16]	@ (10000eac <xosc_init+0x24>)
10000e9a:	6019      	str	r1, [r3, #0]
xosc_init():
/usr/local/share/pico/pico-sdk/src/rp2_common/hardware_xosc/xosc.c:40

    // Set the enable bit now that we have set freq range and startup delay
    hw_set_bits(&xosc_hw->ctrl, XOSC_CTRL_ENABLE_VALUE_ENABLE << XOSC_CTRL_ENABLE_LSB);

    // Wait for XOSC to be stable
    while(!(xosc_hw->status & XOSC_STATUS_STABLE_BITS)) {
10000e9c:	6853      	ldr	r3, [r2, #4]
10000e9e:	2b00      	cmp	r3, #0
10000ea0:	dafc      	bge.n	10000e9c <xosc_init+0x14>
/usr/local/share/pico/pico-sdk/src/rp2_common/hardware_xosc/xosc.c:43
        tight_loop_contents();
    }
}
10000ea2:	4770      	bx	lr
10000ea4:	40024000 	.word	0x40024000
10000ea8:	00fab000 	.word	0x00fab000
10000eac:	40026000 	.word	0x40026000

10000eb0 <first_per_core_initializer>:
first_per_core_initializer():
/usr/local/share/pico/pico-sdk/src/rp2_common/pico_runtime/runtime.c:54
//
// We create a dummy initializer in __preinit_array.YYYYY (between the standard initializers
// and the per core initializers), so we find the first per core initializer. Whilst we could
// have done this via an entry in the linker script, we want to preserve backwards compatibility
// with RP2040 custom linker scripts.
static void first_per_core_initializer(void) {}
10000eb0:	4770      	bx	lr
10000eb2:	46c0      	nop			@ (mov r8, r8)

10000eb4 <hard_assertion_failure>:
hard_assertion_failure():
/usr/local/share/pico/pico-sdk/src/rp2_common/pico_runtime/runtime.c:20
void __weak hard_assertion_failure(void) {
10000eb4:	b510      	push	{r4, lr}
/usr/local/share/pico/pico-sdk/src/rp2_common/pico_runtime/runtime.c:21
    panic("Hard assert");
10000eb6:	4801      	ldr	r0, [pc, #4]	@ (10000ebc <hard_assertion_failure+0x8>)
10000eb8:	f7ff fa60 	bl	1000037c <panic>
10000ebc:	10001710 	.word	0x10001710

10000ec0 <runtime_run_initializers>:
runtime_run_initializers():
/usr/local/share/pico/pico-sdk/src/rp2_common/pico_runtime/runtime.c:39
void runtime_run_initializers(void) {
10000ec0:	b570      	push	{r4, r5, r6, lr}
runtime_run_initializers_from():
/usr/local/share/pico/pico-sdk/src/rp2_common/pico_runtime/runtime.c:33
    for (uintptr_t *p = from; p < &__preinit_array_end; p++) {
10000ec2:	4d07      	ldr	r5, [pc, #28]	@ (10000ee0 <runtime_run_initializers+0x20>)
10000ec4:	4e07      	ldr	r6, [pc, #28]	@ (10000ee4 <runtime_run_initializers+0x24>)
10000ec6:	42b5      	cmp	r5, r6
10000ec8:	d209      	bcs.n	10000ede <runtime_run_initializers+0x1e>
10000eca:	2400      	movs	r4, #0
10000ecc:	3e01      	subs	r6, #1
10000ece:	1b76      	subs	r6, r6, r5
10000ed0:	08b6      	lsrs	r6, r6, #2
/usr/local/share/pico/pico-sdk/src/rp2_common/pico_runtime/runtime.c:35
        ((void (*)(void))val)();
10000ed2:	cd08      	ldmia	r5!, {r3}
10000ed4:	4798      	blx	r3
/usr/local/share/pico/pico-sdk/src/rp2_common/pico_runtime/runtime.c:33
    for (uintptr_t *p = from; p < &__preinit_array_end; p++) {
10000ed6:	0023      	movs	r3, r4
10000ed8:	3401      	adds	r4, #1
10000eda:	42b3      	cmp	r3, r6
10000edc:	d1f9      	bne.n	10000ed2 <runtime_run_initializers+0x12>
runtime_run_initializers():
/usr/local/share/pico/pico-sdk/src/rp2_common/pico_runtime/runtime.c:42
}
10000ede:	bd70      	pop	{r4, r5, r6, pc}
10000ee0:	10001698 	.word	0x10001698
10000ee4:	100016d4 	.word	0x100016d4

10000ee8 <runtime_init_early_resets>:
hw_set_bits():
/usr/local/share/pico/pico-sdk/src/rp2_common/hardware_base/include/hardware/address_mapped.h:136
10000ee8:	4b05      	ldr	r3, [pc, #20]	@ (10000f00 <runtime_init_early_resets+0x18>)
10000eea:	4a06      	ldr	r2, [pc, #24]	@ (10000f04 <runtime_init_early_resets+0x1c>)
unreset_block_reg_mask_wait_blocking():
/usr/local/share/pico/pico-sdk/src/rp2_common/hardware_resets/include/hardware/resets.h:119
10000eec:	4906      	ldr	r1, [pc, #24]	@ (10000f08 <runtime_init_early_resets+0x20>)
hw_set_bits():
/usr/local/share/pico/pico-sdk/src/rp2_common/hardware_base/include/hardware/address_mapped.h:136
10000eee:	601a      	str	r2, [r3, #0]
hw_clear_bits():
/usr/local/share/pico/pico-sdk/src/rp2_common/hardware_base/include/hardware/address_mapped.h:146
    *(io_rw_32 *) hw_clear_alias_untyped((volatile void *) addr) = mask;
10000ef0:	4a06      	ldr	r2, [pc, #24]	@ (10000f0c <runtime_init_early_resets+0x24>)
10000ef2:	4b07      	ldr	r3, [pc, #28]	@ (10000f10 <runtime_init_early_resets+0x28>)
10000ef4:	601a      	str	r2, [r3, #0]
unreset_block_reg_mask_wait_blocking():
/usr/local/share/pico/pico-sdk/src/rp2_common/hardware_resets/include/hardware/resets.h:119
10000ef6:	0010      	movs	r0, r2
10000ef8:	680b      	ldr	r3, [r1, #0]
10000efa:	4398      	bics	r0, r3
10000efc:	d1fb      	bne.n	10000ef6 <runtime_init_early_resets+0xe>
runtime_init_early_resets():
/usr/local/share/pico/pico-sdk/src/rp2_common/pico_runtime_init/runtime_init.c:88
            (1u << RESET_UART0) |
            (1u << RESET_UART1) |
            (1u << RESET_USBCTRL)
    ));

}
10000efe:	4770      	bx	lr
10000f00:	4000e000 	.word	0x4000e000
10000f04:	fefbcdbf 	.word	0xfefbcdbf
10000f08:	4000c008 	.word	0x4000c008
10000f0c:	003c7ffe 	.word	0x003c7ffe
10000f10:	4000f000 	.word	0x4000f000

10000f14 <runtime_init_usb_power_down>:
runtime_init_usb_power_down():
/usr/local/share/pico/pico-sdk/src/rp2_common/pico_runtime_init/runtime_init.c:100
#if !PICO_RUNTIME_NO_INIT_USB_POWER_DOWN
#include "hardware/structs/usb.h"
void __weak runtime_init_usb_power_down(void) {
    // Ensure USB PHY is in low-power state -- must be cleared before beginning USB operations. Only
    // do this if USB appears to be in the reset state, to avoid breaking core1-as-debugger.
    if (usb_hw->sie_ctrl == USB_SIE_CTRL_RESET) {
10000f14:	4b04      	ldr	r3, [pc, #16]	@ (10000f28 <runtime_init_usb_power_down+0x14>)
10000f16:	6cdb      	ldr	r3, [r3, #76]	@ 0x4c
10000f18:	2b00      	cmp	r3, #0
10000f1a:	d103      	bne.n	10000f24 <runtime_init_usb_power_down+0x10>
hw_set_bits():
/usr/local/share/pico/pico-sdk/src/rp2_common/hardware_base/include/hardware/address_mapped.h:136
    *(io_rw_32 *) hw_set_alias_untyped((volatile void *) addr) = mask;
10000f1c:	2280      	movs	r2, #128	@ 0x80
10000f1e:	4b03      	ldr	r3, [pc, #12]	@ (10000f2c <runtime_init_usb_power_down+0x18>)
10000f20:	02d2      	lsls	r2, r2, #11
10000f22:	601a      	str	r2, [r3, #0]
runtime_init_usb_power_down():
/usr/local/share/pico/pico-sdk/src/rp2_common/pico_runtime_init/runtime_init.c:103
        hw_set_bits(&usb_hw->sie_ctrl, USB_SIE_CTRL_TRANSCEIVER_PD_BITS);
    }
}
10000f24:	4770      	bx	lr
10000f26:	46c0      	nop			@ (mov r8, r8)
10000f28:	50110000 	.word	0x50110000
10000f2c:	5011204c 	.word	0x5011204c

10000f30 <runtime_init_post_clock_resets>:
hw_clear_bits():
/usr/local/share/pico/pico-sdk/src/rp2_common/hardware_base/include/hardware/address_mapped.h:146
    *(io_rw_32 *) hw_clear_alias_untyped((volatile void *) addr) = mask;
10000f30:	4a04      	ldr	r2, [pc, #16]	@ (10000f44 <runtime_init_post_clock_resets+0x14>)
10000f32:	4b05      	ldr	r3, [pc, #20]	@ (10000f48 <runtime_init_post_clock_resets+0x18>)
10000f34:	601a      	str	r2, [r3, #0]
unreset_block_reg_mask_wait_blocking():
/usr/local/share/pico/pico-sdk/src/rp2_common/hardware_resets/include/hardware/resets.h:119
10000f36:	4a05      	ldr	r2, [pc, #20]	@ (10000f4c <runtime_init_post_clock_resets+0x1c>)
10000f38:	6813      	ldr	r3, [r2, #0]
10000f3a:	01db      	lsls	r3, r3, #7
10000f3c:	3380      	adds	r3, #128	@ 0x80
10000f3e:	d1fb      	bne.n	10000f38 <runtime_init_post_clock_resets+0x8>
runtime_init_post_clock_resets():
/usr/local/share/pico/pico-sdk/src/rp2_common/pico_runtime_init/runtime_init.c:152
#include "hardware/resets.h"
void __weak runtime_init_post_clock_resets(void) {
    // Peripheral clocks should now all be running
    static_assert(NUM_RESETS <= 32, "");
    unreset_block_mask_wait_blocking(RESETS_RESET_BITS);
}
10000f40:	4770      	bx	lr
10000f42:	46c0      	nop			@ (mov r8, r8)
10000f44:	01ffffff 	.word	0x01ffffff
10000f48:	4000f000 	.word	0x4000f000
10000f4c:	4000c008 	.word	0x4000c008

10000f50 <runtime_init_rp2040_gpio_ie_disable>:
runtime_init_rp2040_gpio_ie_disable():
/usr/local/share/pico/pico-sdk/src/rp2_common/pico_runtime_init/runtime_init.c:172
    // after resetting BANK0 we should disable IE on 26-29 as these may have mid-rail voltages when
    // ADC is in use (on RP2040 B2 and later, and non-RP2040 chips, ADC pins should already have
    // the correct reset state):
    pads_bank0_hw_t *pads_bank0_hw_clear = (pads_bank0_hw_t *)hw_clear_alias_untyped(pads_bank0_hw);
    pads_bank0_hw_clear->io[26] = pads_bank0_hw_clear->io[27] =
            pads_bank0_hw_clear->io[28] = pads_bank0_hw_clear->io[29] = PADS_BANK0_GPIO0_IE_BITS;
10000f50:	2240      	movs	r2, #64	@ 0x40
10000f52:	4b03      	ldr	r3, [pc, #12]	@ (10000f60 <runtime_init_rp2040_gpio_ie_disable+0x10>)
10000f54:	679a      	str	r2, [r3, #120]	@ 0x78
10000f56:	675a      	str	r2, [r3, #116]	@ 0x74
/usr/local/share/pico/pico-sdk/src/rp2_common/pico_runtime_init/runtime_init.c:171
    pads_bank0_hw_clear->io[26] = pads_bank0_hw_clear->io[27] =
10000f58:	671a      	str	r2, [r3, #112]	@ 0x70
10000f5a:	66da      	str	r2, [r3, #108]	@ 0x6c
/usr/local/share/pico/pico-sdk/src/rp2_common/pico_runtime_init/runtime_init.c:174
#endif
}
10000f5c:	4770      	bx	lr
10000f5e:	46c0      	nop			@ (mov r8, r8)
10000f60:	4001f000 	.word	0x4001f000

10000f64 <runtime_init_spin_locks_reset>:
runtime_init_spin_locks_reset():
/usr/local/share/pico/pico-sdk/src/rp2_common/pico_runtime_init/runtime_init.c:183
PICO_RUNTIME_INIT_FUNC_HW(runtime_init_rp2040_gpio_ie_disable, PICO_RUNTIME_INIT_RP2040_GPIO_IE_DISABLE);
#endif

#if !PICO_RUNTIME_NO_INIT_SPIN_LOCKS_RESET
#include "hardware/sync.h"
void __weak runtime_init_spin_locks_reset(void) {
10000f64:	b510      	push	{r4, lr}
/usr/local/share/pico/pico-sdk/src/rp2_common/pico_runtime_init/runtime_init.c:184
    spin_locks_reset();
10000f66:	f7ff fa4f 	bl	10000408 <spin_locks_reset>
/usr/local/share/pico/pico-sdk/src/rp2_common/pico_runtime_init/runtime_init.c:185
}
10000f6a:	bd10      	pop	{r4, pc}

10000f6c <runtime_init_install_ram_vector_table>:
runtime_init_install_ram_vector_table():
/usr/local/share/pico/pico-sdk/src/rp2_common/pico_runtime_init/runtime_init.c:214
#endif


uint32_t __attribute__((section(".ram_vector_table"))) ram_vector_table[PICO_RAM_VECTOR_TABLE_SIZE];

void runtime_init_install_ram_vector_table(void) {
10000f6c:	b5f8      	push	{r3, r4, r5, r6, r7, lr}
/usr/local/share/pico/pico-sdk/src/rp2_common/pico_runtime_init/runtime_init.c:219
    // Note on RISC-V the RAM vector table is initialised during crt0
#if !(PICO_NO_RAM_VECTOR_TABLE || PICO_NO_FLASH)
    extern uint32_t __vectors;
    extern uint32_t __vectors_end;
    uint32_t stored_words = (uint32_t)(&__vectors_end - &__vectors);
10000f6e:	492b      	ldr	r1, [pc, #172]	@ (1000101c <runtime_init_install_ram_vector_table+0xb0>)
10000f70:	4c2b      	ldr	r4, [pc, #172]	@ (10001020 <runtime_init_install_ram_vector_table+0xb4>)
/usr/local/share/pico/pico-sdk/src/rp2_common/pico_runtime_init/runtime_init.c:220
    __builtin_memcpy(ram_vector_table, &__vectors, 4 * MIN(stored_words, PICO_RAM_VECTOR_TABLE_SIZE));
10000f72:	4d2c      	ldr	r5, [pc, #176]	@ (10001024 <runtime_init_install_ram_vector_table+0xb8>)
/usr/local/share/pico/pico-sdk/src/rp2_common/pico_runtime_init/runtime_init.c:219
    uint32_t stored_words = (uint32_t)(&__vectors_end - &__vectors);
10000f74:	1a64      	subs	r4, r4, r1
10000f76:	10a6      	asrs	r6, r4, #2
/usr/local/share/pico/pico-sdk/src/rp2_common/pico_runtime_init/runtime_init.c:220
    __builtin_memcpy(ram_vector_table, &__vectors, 4 * MIN(stored_words, PICO_RAM_VECTOR_TABLE_SIZE));
10000f78:	0032      	movs	r2, r6
10000f7a:	2e30      	cmp	r6, #48	@ 0x30
10000f7c:	d900      	bls.n	10000f80 <runtime_init_install_ram_vector_table+0x14>
10000f7e:	2230      	movs	r2, #48	@ 0x30
10000f80:	0028      	movs	r0, r5
10000f82:	0092      	lsls	r2, r2, #2
10000f84:	f000 f9a6 	bl	100012d4 <__wrap___aeabi_memcpy>
/usr/local/share/pico/pico-sdk/src/rp2_common/pico_runtime_init/runtime_init.c:221
    for(uint i = stored_words; i<count_of(ram_vector_table); i++) {
10000f88:	2cbc      	cmp	r4, #188	@ 0xbc
10000f8a:	d83e      	bhi.n	1000100a <runtime_init_install_ram_vector_table+0x9e>
10000f8c:	1c73      	adds	r3, r6, #1
10000f8e:	0018      	movs	r0, r3
10000f90:	2701      	movs	r7, #1
/usr/local/share/pico/pico-sdk/src/rp2_common/pico_runtime_init/runtime_init.c:222
        ram_vector_table[i] = (uintptr_t)__unhandled_user_irq;
10000f92:	4a25      	ldr	r2, [pc, #148]	@ (10001028 <runtime_init_install_ram_vector_table+0xbc>)
10000f94:	2b30      	cmp	r3, #48	@ 0x30
10000f96:	d93b      	bls.n	10001010 <runtime_init_install_ram_vector_table+0xa4>
10000f98:	212f      	movs	r1, #47	@ 0x2f
10000f9a:	192c      	adds	r4, r5, r4
10000f9c:	0764      	lsls	r4, r4, #29
10000f9e:	0fe4      	lsrs	r4, r4, #31
10000fa0:	1b89      	subs	r1, r1, r6
10000fa2:	2905      	cmp	r1, #5
10000fa4:	d917      	bls.n	10000fd6 <runtime_init_install_ram_vector_table+0x6a>
10000fa6:	2b30      	cmp	r3, #48	@ 0x30
10000fa8:	d815      	bhi.n	10000fd6 <runtime_init_install_ram_vector_table+0x6a>
10000faa:	2c00      	cmp	r4, #0
10000fac:	d033      	beq.n	10001016 <runtime_init_install_ram_vector_table+0xaa>
10000fae:	00b3      	lsls	r3, r6, #2
10000fb0:	50ea      	str	r2, [r5, r3]
/usr/local/share/pico/pico-sdk/src/rp2_common/pico_runtime_init/runtime_init.c:221
    for(uint i = stored_words; i<count_of(ram_vector_table); i++) {
10000fb2:	1b3f      	subs	r7, r7, r4
10000fb4:	1933      	adds	r3, r6, r4
10000fb6:	009b      	lsls	r3, r3, #2
10000fb8:	0879      	lsrs	r1, r7, #1
10000fba:	18eb      	adds	r3, r5, r3
10000fbc:	00c9      	lsls	r1, r1, #3
10000fbe:	18c9      	adds	r1, r1, r3
/usr/local/share/pico/pico-sdk/src/rp2_common/pico_runtime_init/runtime_init.c:222 (discriminator 3)
        ram_vector_table[i] = (uintptr_t)__unhandled_user_irq;
10000fc0:	601a      	str	r2, [r3, #0]
10000fc2:	605a      	str	r2, [r3, #4]
/usr/local/share/pico/pico-sdk/src/rp2_common/pico_runtime_init/runtime_init.c:221 (discriminator 3)
    for(uint i = stored_words; i<count_of(ram_vector_table); i++) {
10000fc4:	3308      	adds	r3, #8
10000fc6:	428b      	cmp	r3, r1
10000fc8:	d1fa      	bne.n	10000fc0 <runtime_init_install_ram_vector_table+0x54>
10000fca:	2301      	movs	r3, #1
10000fcc:	423b      	tst	r3, r7
10000fce:	d01c      	beq.n	1000100a <runtime_init_install_ram_vector_table+0x9e>
10000fd0:	439f      	bics	r7, r3
10000fd2:	183e      	adds	r6, r7, r0
10000fd4:	1c73      	adds	r3, r6, #1
/usr/local/share/pico/pico-sdk/src/rp2_common/pico_runtime_init/runtime_init.c:222
        ram_vector_table[i] = (uintptr_t)__unhandled_user_irq;
10000fd6:	00b1      	lsls	r1, r6, #2
10000fd8:	506a      	str	r2, [r5, r1]
/usr/local/share/pico/pico-sdk/src/rp2_common/pico_runtime_init/runtime_init.c:221
    for(uint i = stored_words; i<count_of(ram_vector_table); i++) {
10000fda:	2b30      	cmp	r3, #48	@ 0x30
10000fdc:	d015      	beq.n	1000100a <runtime_init_install_ram_vector_table+0x9e>
/usr/local/share/pico/pico-sdk/src/rp2_common/pico_runtime_init/runtime_init.c:222
        ram_vector_table[i] = (uintptr_t)__unhandled_user_irq;
10000fde:	009b      	lsls	r3, r3, #2
10000fe0:	50ea      	str	r2, [r5, r3]
/usr/local/share/pico/pico-sdk/src/rp2_common/pico_runtime_init/runtime_init.c:221
    for(uint i = stored_words; i<count_of(ram_vector_table); i++) {
10000fe2:	1cb3      	adds	r3, r6, #2
10000fe4:	2e2e      	cmp	r6, #46	@ 0x2e
10000fe6:	d010      	beq.n	1000100a <runtime_init_install_ram_vector_table+0x9e>
/usr/local/share/pico/pico-sdk/src/rp2_common/pico_runtime_init/runtime_init.c:222
        ram_vector_table[i] = (uintptr_t)__unhandled_user_irq;
10000fe8:	009b      	lsls	r3, r3, #2
10000fea:	50ea      	str	r2, [r5, r3]
/usr/local/share/pico/pico-sdk/src/rp2_common/pico_runtime_init/runtime_init.c:221
    for(uint i = stored_words; i<count_of(ram_vector_table); i++) {
10000fec:	1cf3      	adds	r3, r6, #3
10000fee:	2e2d      	cmp	r6, #45	@ 0x2d
10000ff0:	d00b      	beq.n	1000100a <runtime_init_install_ram_vector_table+0x9e>
/usr/local/share/pico/pico-sdk/src/rp2_common/pico_runtime_init/runtime_init.c:222
        ram_vector_table[i] = (uintptr_t)__unhandled_user_irq;
10000ff2:	009b      	lsls	r3, r3, #2
10000ff4:	50ea      	str	r2, [r5, r3]
/usr/local/share/pico/pico-sdk/src/rp2_common/pico_runtime_init/runtime_init.c:221
    for(uint i = stored_words; i<count_of(ram_vector_table); i++) {
10000ff6:	1d33      	adds	r3, r6, #4
10000ff8:	2e2c      	cmp	r6, #44	@ 0x2c
10000ffa:	d006      	beq.n	1000100a <runtime_init_install_ram_vector_table+0x9e>
/usr/local/share/pico/pico-sdk/src/rp2_common/pico_runtime_init/runtime_init.c:222
        ram_vector_table[i] = (uintptr_t)__unhandled_user_irq;
10000ffc:	009b      	lsls	r3, r3, #2
10000ffe:	50ea      	str	r2, [r5, r3]
/usr/local/share/pico/pico-sdk/src/rp2_common/pico_runtime_init/runtime_init.c:221
    for(uint i = stored_words; i<count_of(ram_vector_table); i++) {
10001000:	1d73      	adds	r3, r6, #5
10001002:	2e2b      	cmp	r6, #43	@ 0x2b
10001004:	d001      	beq.n	1000100a <runtime_init_install_ram_vector_table+0x9e>
/usr/local/share/pico/pico-sdk/src/rp2_common/pico_runtime_init/runtime_init.c:222
        ram_vector_table[i] = (uintptr_t)__unhandled_user_irq;
10001006:	009b      	lsls	r3, r3, #2
10001008:	50ea      	str	r2, [r5, r3]
/usr/local/share/pico/pico-sdk/src/rp2_common/pico_runtime_init/runtime_init.c:224
    }
    scb_hw->vtor = (uintptr_t) ram_vector_table;
1000100a:	4b08      	ldr	r3, [pc, #32]	@ (1000102c <runtime_init_install_ram_vector_table+0xc0>)
1000100c:	609d      	str	r5, [r3, #8]
/usr/local/share/pico/pico-sdk/src/rp2_common/pico_runtime_init/runtime_init.c:226
#endif
}
1000100e:	bdf8      	pop	{r3, r4, r5, r6, r7, pc}
10001010:	372f      	adds	r7, #47	@ 0x2f
10001012:	1bbf      	subs	r7, r7, r6
10001014:	e7c0      	b.n	10000f98 <runtime_init_install_ram_vector_table+0x2c>
/usr/local/share/pico/pico-sdk/src/rp2_common/pico_runtime_init/runtime_init.c:221
    for(uint i = stored_words; i<count_of(ram_vector_table); i++) {
10001016:	0030      	movs	r0, r6
10001018:	e7cb      	b.n	10000fb2 <runtime_init_install_ram_vector_table+0x46>
1000101a:	46c0      	nop			@ (mov r8, r8)
1000101c:	10000100 	.word	0x10000100
10001020:	100001c0 	.word	0x100001c0
10001024:	20000000 	.word	0x20000000
10001028:	100001c1 	.word	0x100001c1
1000102c:	e000ed00 	.word	0xe000ed00

10001030 <runtime_init_clocks>:
runtime_init_clocks():
/usr/local/share/pico/pico-sdk/src/rp2_common/pico_runtime_init/runtime_init_clocks.c:54
#if HAS_RP2040_RTC
        clock_set_reported_hz(clk_rtc, RTC_CLOCK_FREQ_HZ);
#endif
    } else {
        // Disable resus that may be enabled from previous software
        clocks_hw->resus.ctrl = 0;
10001030:	2300      	movs	r3, #0
/usr/local/share/pico/pico-sdk/src/rp2_common/pico_runtime_init/runtime_init_clocks.c:40
void __weak runtime_init_clocks(void) {
10001032:	b510      	push	{r4, lr}
/usr/local/share/pico/pico-sdk/src/rp2_common/pico_runtime_init/runtime_init_clocks.c:54
        clocks_hw->resus.ctrl = 0;
10001034:	4c29      	ldr	r4, [pc, #164]	@ (100010dc <runtime_init_clocks+0xac>)
/usr/local/share/pico/pico-sdk/src/rp2_common/pico_runtime_init/runtime_init_clocks.c:40
void __weak runtime_init_clocks(void) {
10001036:	b082      	sub	sp, #8
/usr/local/share/pico/pico-sdk/src/rp2_common/pico_runtime_init/runtime_init_clocks.c:54
        clocks_hw->resus.ctrl = 0;
10001038:	67a3      	str	r3, [r4, #120]	@ 0x78
/usr/local/share/pico/pico-sdk/src/rp2_common/pico_runtime_init/runtime_init_clocks.c:57

        // Enable the xosc
        xosc_init();
1000103a:	f7ff ff25 	bl	10000e88 <xosc_init>
hw_clear_bits():
/usr/local/share/pico/pico-sdk/src/rp2_common/hardware_base/include/hardware/address_mapped.h:146
1000103e:	2201      	movs	r2, #1
10001040:	4b27      	ldr	r3, [pc, #156]	@ (100010e0 <runtime_init_clocks+0xb0>)
10001042:	601a      	str	r2, [r3, #0]
runtime_init_clocks():
/usr/local/share/pico/pico-sdk/src/rp2_common/pico_runtime_init/runtime_init_clocks.c:61

        // Before we touch PLLs, switch sys and ref cleanly away from their aux sources.
        hw_clear_bits(&clocks_hw->clk[clk_sys].ctrl, CLOCKS_CLK_SYS_CTRL_SRC_BITS);
        while (clocks_hw->clk[clk_sys].selected != 0x1)
10001044:	6c63      	ldr	r3, [r4, #68]	@ 0x44
10001046:	2b01      	cmp	r3, #1
10001048:	d1fc      	bne.n	10001044 <runtime_init_clocks+0x14>
hw_clear_bits():
/usr/local/share/pico/pico-sdk/src/rp2_common/hardware_base/include/hardware/address_mapped.h:146
1000104a:	2203      	movs	r2, #3
1000104c:	4b25      	ldr	r3, [pc, #148]	@ (100010e4 <runtime_init_clocks+0xb4>)
1000104e:	601a      	str	r2, [r3, #0]
runtime_init_clocks():
/usr/local/share/pico/pico-sdk/src/rp2_common/pico_runtime_init/runtime_init_clocks.c:64
            tight_loop_contents();
        hw_clear_bits(&clocks_hw->clk[clk_ref].ctrl, CLOCKS_CLK_REF_CTRL_SRC_BITS);
        while (clocks_hw->clk[clk_ref].selected != 0x1)
10001050:	4a22      	ldr	r2, [pc, #136]	@ (100010dc <runtime_init_clocks+0xac>)
10001052:	6b93      	ldr	r3, [r2, #56]	@ 0x38
10001054:	2b01      	cmp	r3, #1
10001056:	d1fc      	bne.n	10001052 <runtime_init_clocks+0x22>
/usr/local/share/pico/pico-sdk/src/rp2_common/pico_runtime_init/runtime_init_clocks.c:68
            tight_loop_contents();

        /// \tag::pll_init[]
        pll_init(pll_sys, PLL_SYS_REFDIV, PLL_SYS_VCO_FREQ_HZ, PLL_SYS_POSTDIV1, PLL_SYS_POSTDIV2);
10001058:	3301      	adds	r3, #1
1000105a:	9300      	str	r3, [sp, #0]
1000105c:	2101      	movs	r1, #1
1000105e:	4a22      	ldr	r2, [pc, #136]	@ (100010e8 <runtime_init_clocks+0xb8>)
10001060:	4822      	ldr	r0, [pc, #136]	@ (100010ec <runtime_init_clocks+0xbc>)
10001062:	3304      	adds	r3, #4
10001064:	f7ff fe86 	bl	10000d74 <pll_init>
/usr/local/share/pico/pico-sdk/src/rp2_common/pico_runtime_init/runtime_init_clocks.c:69
        pll_init(pll_usb, PLL_USB_REFDIV, PLL_USB_VCO_FREQ_HZ, PLL_USB_POSTDIV1, PLL_USB_POSTDIV2);
10001068:	2305      	movs	r3, #5
1000106a:	2101      	movs	r1, #1
1000106c:	9300      	str	r3, [sp, #0]
1000106e:	4a20      	ldr	r2, [pc, #128]	@ (100010f0 <runtime_init_clocks+0xc0>)
10001070:	4820      	ldr	r0, [pc, #128]	@ (100010f4 <runtime_init_clocks+0xc4>)
10001072:	f7ff fe7f 	bl	10000d74 <pll_init>
/usr/local/share/pico/pico-sdk/src/rp2_common/pico_runtime_init/runtime_init_clocks.c:85
        //
        // - RP2350: there is an aux mux, but we are selecting one of the
        //   non-aux inputs to the glitchless mux, so the aux select doesn't
        //   matter. The value of 0 here happens to be the sys PLL.

        clock_configure_undivided(clk_ref,
10001076:	2200      	movs	r2, #0
10001078:	2102      	movs	r1, #2
1000107a:	2004      	movs	r0, #4
1000107c:	4b1e      	ldr	r3, [pc, #120]	@ (100010f8 <runtime_init_clocks+0xc8>)
1000107e:	f7ff fdff 	bl	10000c80 <clock_configure_undivided>
/usr/local/share/pico/pico-sdk/src/rp2_common/pico_runtime_init/runtime_init_clocks.c:101
        }
#endif

        /// \tag::configure_clk_sys[]
        // CLK SYS = PLL SYS (usually) 125MHz / 1 = 125MHz
        clock_configure_undivided(clk_sys,
10001082:	2200      	movs	r2, #0
10001084:	2101      	movs	r1, #1
10001086:	2005      	movs	r0, #5
10001088:	4b1c      	ldr	r3, [pc, #112]	@ (100010fc <runtime_init_clocks+0xcc>)
1000108a:	f7ff fdf9 	bl	10000c80 <clock_configure_undivided>
/usr/local/share/pico/pico-sdk/src/rp2_common/pico_runtime_init/runtime_init_clocks.c:108
                        CLOCKS_CLK_SYS_CTRL_AUXSRC_VALUE_CLKSRC_PLL_SYS,
                        SYS_CLK_HZ);
        /// \end::configure_clk_sys[]

        // CLK USB = PLL USB 48MHz / 1 = 48MHz
        clock_configure_undivided(clk_usb,
1000108e:	2200      	movs	r2, #0
10001090:	2100      	movs	r1, #0
10001092:	2007      	movs	r0, #7
10001094:	4b1a      	ldr	r3, [pc, #104]	@ (10001100 <runtime_init_clocks+0xd0>)
10001096:	f7ff fdf3 	bl	10000c80 <clock_configure_undivided>
/usr/local/share/pico/pico-sdk/src/rp2_common/pico_runtime_init/runtime_init_clocks.c:114
                        0, // No GLMUX
                        CLOCKS_CLK_USB_CTRL_AUXSRC_VALUE_CLKSRC_PLL_USB,
                        USB_CLK_HZ);

        // CLK ADC = PLL USB 48MHZ / 1 = 48MHz
        clock_configure_undivided(clk_adc,
1000109a:	2200      	movs	r2, #0
1000109c:	2100      	movs	r1, #0
1000109e:	2008      	movs	r0, #8
100010a0:	4b17      	ldr	r3, [pc, #92]	@ (10001100 <runtime_init_clocks+0xd0>)
100010a2:	f7ff fded 	bl	10000c80 <clock_configure_undivided>
/usr/local/share/pico/pico-sdk/src/rp2_common/pico_runtime_init/runtime_init_clocks.c:123

#if HAS_RP2040_RTC
        // CLK RTC = PLL USB 48MHz / 1024 = 46875Hz
#if (USB_CLK_HZ % RTC_CLOCK_FREQ_HZ == 0)
        // this doesn't pull in 64 bit arithmetic
        clock_configure_int_divider(clk_rtc,
100010a6:	2380      	movs	r3, #128	@ 0x80
100010a8:	00db      	lsls	r3, r3, #3
100010aa:	9300      	str	r3, [sp, #0]
100010ac:	2200      	movs	r2, #0
100010ae:	2100      	movs	r1, #0
100010b0:	2009      	movs	r0, #9
100010b2:	4b13      	ldr	r3, [pc, #76]	@ (10001100 <runtime_init_clocks+0xd0>)
100010b4:	f7ff fd6a 	bl	10000b8c <clock_configure_int_divider>
/usr/local/share/pico/pico-sdk/src/rp2_common/pico_runtime_init/runtime_init_clocks.c:140

#endif
#endif

        // CLK PERI = clk_sys. Used as reference clock for UART and SPI serial.
        clock_configure_undivided(clk_peri,
100010b8:	2200      	movs	r2, #0
100010ba:	4b10      	ldr	r3, [pc, #64]	@ (100010fc <runtime_init_clocks+0xcc>)
100010bc:	2100      	movs	r1, #0
100010be:	2006      	movs	r0, #6
100010c0:	f7ff fdde 	bl	10000c80 <clock_configure_undivided>
start_all_ticks():
/usr/local/share/pico/pico-sdk/src/rp2_common/pico_runtime_init/runtime_init_clocks.c:29
    uint32_t cycles = clock_get_hz(clk_ref) / MHZ;
100010c4:	2004      	movs	r0, #4
100010c6:	f7ff fe4f 	bl	10000d68 <clock_get_hz>
100010ca:	490e      	ldr	r1, [pc, #56]	@ (10001104 <runtime_init_clocks+0xd4>)
100010cc:	f000 f824 	bl	10001118 <__wrap___aeabi_uidiv>
100010d0:	0001      	movs	r1, r0
/usr/local/share/pico/pico-sdk/src/rp2_common/pico_runtime_init/runtime_init_clocks.c:36
        tick_start((tick_gen_num_t)i, cycles);
100010d2:	2000      	movs	r0, #0
100010d4:	f7ff fe9e 	bl	10000e14 <tick_start>
runtime_init_clocks():
/usr/local/share/pico/pico-sdk/src/rp2_common/pico_runtime_init/runtime_init_clocks.c:157
    }

    // Finally, all clocks are configured so start the ticks
    // The ticks use clk_ref so now that is configured we can start them
    start_all_ticks();
}
100010d8:	b002      	add	sp, #8
100010da:	bd10      	pop	{r4, pc}
100010dc:	40008000 	.word	0x40008000
100010e0:	4000b03c 	.word	0x4000b03c
100010e4:	4000b030 	.word	0x4000b030
100010e8:	59682f00 	.word	0x59682f00
100010ec:	40028000 	.word	0x40028000
100010f0:	47868c00 	.word	0x47868c00
100010f4:	4002c000 	.word	0x4002c000
100010f8:	00b71b00 	.word	0x00b71b00
100010fc:	07735940 	.word	0x07735940
10001100:	02dc6c00 	.word	0x02dc6c00
10001104:	000f4240 	.word	0x000f4240

10001108 <__aeabi_bits_init>:
__aeabi_bits_init():
/usr/local/share/pico/pico-sdk/src/rp2_common/pico_bit_ops/bit_ops_aeabi.S:40
aeabi_bits_funcs_end:

.section .text
.thumb_func
__aeabi_bits_init:
    ldr r0, =aeabi_bits_funcs
10001108:	4801      	ldr	r0, [pc, #4]	@ (10001110 <__aeabi_bits_init+0x8>)
/usr/local/share/pico/pico-sdk/src/rp2_common/pico_bit_ops/bit_ops_aeabi.S:41
    movs r1, #BITS_FUNC_COUNT
1000110a:	2104      	movs	r1, #4
/usr/local/share/pico/pico-sdk/src/rp2_common/pico_bit_ops/bit_ops_aeabi.S:42
    ldr r3, =rom_funcs_lookup
1000110c:	4b01      	ldr	r3, [pc, #4]	@ (10001114 <__aeabi_bits_init+0xc>)
/usr/local/share/pico/pico-sdk/src/rp2_common/pico_bit_ops/bit_ops_aeabi.S:43
    bx r3
1000110e:	4718      	bx	r3
/usr/local/share/pico/pico-sdk/src/rp2_common/pico_bit_ops/bit_ops_aeabi.S:40
    ldr r0, =aeabi_bits_funcs
10001110:	200001c0 	.word	0x200001c0
/usr/local/share/pico/pico-sdk/src/rp2_common/pico_bit_ops/bit_ops_aeabi.S:42
    ldr r3, =rom_funcs_lookup
10001114:	10000e45 	.word	0x10000e45

10001118 <__wrap___aeabi_uidiv>:
__wrap___aeabi_uidiv():
/usr/local/share/pico/pico-sdk/src/rp2_common/pico_divider/divider_hardware.S:171
regular_func divmod_u32u32
wrapper_func __aeabi_uidiv
wrapper_func __aeabi_uidivmod
#if !PICO_DIVIDER_DISABLE_INTERRUPTS
    // to support IRQ usage (or context switch) we must save/restore divider state around call if state is dirty
    ldr r2, =SIO_BASE
10001118:	4a11      	ldr	r2, [pc, #68]	@ (10001160 <divmod_u32u32_savestate+0x18>)
/usr/local/share/pico/pico-sdk/src/rp2_common/pico_divider/divider_hardware.S:172
    ldr r3, [r2, #SIO_DIV_CSR_OFFSET]
1000111a:	6f93      	ldr	r3, [r2, #120]	@ 0x78
/usr/local/share/pico/pico-sdk/src/rp2_common/pico_divider/divider_hardware.S:173
    lsrs r3, #SIO_DIV_CSR_DIRTY_SHIFT_FOR_CARRY
1000111c:	089b      	lsrs	r3, r3, #2
/usr/local/share/pico/pico-sdk/src/rp2_common/pico_divider/divider_hardware.S:174
    bcs divmod_u32u32_savestate
1000111e:	d213      	bcs.n	10001148 <divmod_u32u32_savestate>

10001120 <divmod_u32u32_unsafe>:
divmod_u32u32_unsafe():
/usr/local/share/pico/pico-sdk/src/rp2_common/pico_divider/divider_hardware.S:186
    // to avoid worrying about IRQs (or context switches), simply disable interrupts around call
    ldr r2, =SIO_BASE
    mrs r3, PRIMASK
    cpsid i
#endif /* !PICO_DIVIDER_DISABLE_INTERRUPTS */
    str r0, [r2, #SIO_DIV_UDIVIDEND_OFFSET]
10001120:	6610      	str	r0, [r2, #96]	@ 0x60
/usr/local/share/pico/pico-sdk/src/rp2_common/pico_divider/divider_hardware.S:187
    str r1, [r2, #SIO_DIV_UDIVISOR_OFFSET]
10001122:	6651      	str	r1, [r2, #100]	@ 0x64
/usr/local/share/pico/pico-sdk/src/rp2_common/pico_divider/divider_hardware.S:188
    cmp r1, #0
10001124:	2900      	cmp	r1, #0
/usr/local/share/pico/pico-sdk/src/rp2_common/pico_divider/divider_hardware.S:189
    beq 1f
10001126:	d005      	beq.n	10001134 <divmod_u32u32_unsafe+0x14>
/usr/local/share/pico/pico-sdk/src/rp2_common/pico_divider/divider_hardware.S:190
    wait_div 2
10001128:	e7ff      	b.n	1000112a <divmod_u32u32_unsafe+0xa>
1000112a:	e7ff      	b.n	1000112c <divmod_u32u32_unsafe+0xc>
1000112c:	e7ff      	b.n	1000112e <divmod_u32u32_unsafe+0xe>
/usr/local/share/pico/pico-sdk/src/rp2_common/pico_divider/divider_hardware.S:192
    // return 64 bit value so we can efficiently return both (note read order is important since QUOTIENT must be read last)
    ldr r1, [r2, #SIO_DIV_REMAINDER_OFFSET]
1000112e:	6f51      	ldr	r1, [r2, #116]	@ 0x74
/usr/local/share/pico/pico-sdk/src/rp2_common/pico_divider/divider_hardware.S:193
    ldr r0, [r2, #SIO_DIV_QUOTIENT_OFFSET]
10001130:	6f10      	ldr	r0, [r2, #112]	@ 0x70
/usr/local/share/pico/pico-sdk/src/rp2_common/pico_divider/divider_hardware.S:197
#if PICO_DIVIDER_DISABLE_INTERRUPTS
    msr PRIMASK, r3
#endif /* PICO_DIVIDER_DISABLE_INTERRUPTS */
    bx lr
10001132:	4770      	bx	lr
/usr/local/share/pico/pico-sdk/src/rp2_common/pico_divider/divider_hardware.S:202
1:
#if PICO_DIVIDER_DISABLE_INTERRUPTS
    msr PRIMASK, r3
#endif /* PICO_DIVIDER_DISABLE_INTERRUPTS */
    push {r2, lr}
10001134:	b504      	push	{r2, lr}
/usr/local/share/pico/pico-sdk/src/rp2_common/pico_divider/divider_hardware.S:203
    cmp r0, #0
10001136:	2800      	cmp	r0, #0
/usr/local/share/pico/pico-sdk/src/rp2_common/pico_divider/divider_hardware.S:204
    beq 1f
10001138:	d001      	beq.n	1000113e <divmod_u32u32_unsafe+0x1e>
/usr/local/share/pico/pico-sdk/src/rp2_common/pico_divider/divider_hardware.S:205
    movs r0, #0
1000113a:	2000      	movs	r0, #0
/usr/local/share/pico/pico-sdk/src/rp2_common/pico_divider/divider_hardware.S:206
    mvns r0, r0
1000113c:	43c0      	mvns	r0, r0
/usr/local/share/pico/pico-sdk/src/rp2_common/pico_divider/divider_hardware.S:209
1:
#if PICO_DIVIDER_CALL_IDIV0
    bl __aeabi_idiv0
1000113e:	f000 fa9b 	bl	10001678 <____aeabi_idiv0_veneer>
/usr/local/share/pico/pico-sdk/src/rp2_common/pico_divider/divider_hardware.S:211
#endif
    movs r1, #0 // remainder 0
10001142:	2100      	movs	r1, #0
/usr/local/share/pico/pico-sdk/src/rp2_common/pico_divider/divider_hardware.S:213
    // need to restore saved r2 as it hold SIO ptr
    pop {r2, pc}
10001144:	bd04      	pop	{r2, pc}
10001146:	46c0      	nop			@ (mov r8, r8)

10001148 <divmod_u32u32_savestate>:
divmod_u32u32_savestate():
/usr/local/share/pico/pico-sdk/src/rp2_common/pico_divider/divider_hardware.S:217
#if !PICO_DIVIDER_DISABLE_INTERRUPTS
.align 2
regular_func divmod_u32u32_savestate
    save_div_state_and_lr
10001148:	b5f0      	push	{r4, r5, r6, r7, lr}
1000114a:	6e14      	ldr	r4, [r2, #96]	@ 0x60
1000114c:	6e55      	ldr	r5, [r2, #100]	@ 0x64
1000114e:	6f57      	ldr	r7, [r2, #116]	@ 0x74
10001150:	6f16      	ldr	r6, [r2, #112]	@ 0x70
/usr/local/share/pico/pico-sdk/src/rp2_common/pico_divider/divider_hardware.S:218
    bl divmod_u32u32_unsafe
10001152:	f7ff ffe5 	bl	10001120 <divmod_u32u32_unsafe>
/usr/local/share/pico/pico-sdk/src/rp2_common/pico_divider/divider_hardware.S:219
    restore_div_state_and_return
10001156:	6614      	str	r4, [r2, #96]	@ 0x60
10001158:	6655      	str	r5, [r2, #100]	@ 0x64
1000115a:	6757      	str	r7, [r2, #116]	@ 0x74
1000115c:	6716      	str	r6, [r2, #112]	@ 0x70
1000115e:	bdf0      	pop	{r4, r5, r6, r7, pc}
/usr/local/share/pico/pico-sdk/src/rp2_common/pico_divider/divider_hardware.S:171
    ldr r2, =SIO_BASE
10001160:	d0000000 	.word	0xd0000000

10001164 <__aeabi_double_init>:
rp2040_rom_version():
/usr/local/share/pico/pico-sdk/src/rp2040/pico_platform/include/pico/platform.h:150
 * @return the RP2040 rom version number (1 for RP2040-B0, 2 for RP2040-B1, 3 for RP2040-B2)
 */
static inline uint8_t rp2040_rom_version(void) {
    GCC_Pragma("GCC diagnostic push")
    GCC_Pragma("GCC diagnostic ignored \"-Warray-bounds\"")
    return *(uint8_t*)0x13;
10001164:	2313      	movs	r3, #19
__aeabi_double_init():
/usr/local/share/pico/pico-sdk/src/rp2_common/pico_double/double_init_rom_rp2040.c:24
#endif
extern void double_table_shim_on_use_helper(void);

void __attribute__((weak)) *sf_clz_func;

void __aeabi_double_init(void) {
10001166:	b570      	push	{r4, r5, r6, lr}
/usr/local/share/pico/pico-sdk/src/rp2_common/pico_double/double_init_rom_rp2040.c:25
    int rom_version = rp2040_rom_version();
10001168:	781d      	ldrb	r5, [r3, #0]
/usr/local/share/pico/pico-sdk/src/rp2_common/pico_double/double_init_rom_rp2040.c:27
#if PICO_DOUBLE_SUPPORT_ROM_V1 && PICO_RP2040_B0_SUPPORTED
    if (rom_version == 1) {
1000116a:	2d01      	cmp	r5, #1
1000116c:	d019      	beq.n	100011a2 <__aeabi_double_init+0x3e>
/usr/local/share/pico/pico-sdk/src/rp2_common/pico_double/double_init_rom_rp2040.c:48
        for(uint i=0;i<SF_TABLE_V2_SIZE/4;i++) {
            sd_table[i] = (uintptr_t)missing_double_func_shim;
        }
    }
#endif
    if (rom_version >= 2) {
1000116e:	dd14      	ble.n	1000119a <__aeabi_double_init+0x36>
/usr/local/share/pico/pico-sdk/src/rp2_common/pico_double/double_init_rom_rp2040.c:49
        void *rom_table_double = rom_data_lookup(rom_table_code('S', 'D'));
10001170:	481f      	ldr	r0, [pc, #124]	@ (100011f0 <__aeabi_double_init+0x8c>)
10001172:	f7ff fe5f 	bl	10000e34 <rom_data_lookup>
10001176:	0006      	movs	r6, r0
/usr/local/share/pico/pico-sdk/src/rp2_common/pico_double/double_init_rom_rp2040.c:50
        void *rom_table_float = rom_data_lookup(rom_table_code('S', 'F'));
10001178:	481e      	ldr	r0, [pc, #120]	@ (100011f4 <__aeabi_double_init+0x90>)
1000117a:	f7ff fe5b 	bl	10000e34 <rom_data_lookup>
/usr/local/share/pico/pico-sdk/src/rp2_common/pico_double/double_init_rom_rp2040.c:53
        assert(*((uint8_t *)(((void *)rom_table_float)-2)) * 4 >= SF_TABLE_V2_SIZE);
        (void)rom_table_float;
        memcpy(&sd_table, rom_table_double, SF_TABLE_V2_SIZE);
1000117e:	4c1e      	ldr	r4, [pc, #120]	@ (100011f8 <__aeabi_double_init+0x94>)
10001180:	2280      	movs	r2, #128	@ 0x80
10001182:	0031      	movs	r1, r6
10001184:	0020      	movs	r0, r4
10001186:	f000 f8a5 	bl	100012d4 <__wrap___aeabi_memcpy>
/usr/local/share/pico/pico-sdk/src/rp2_common/pico_double/double_init_rom_rp2040.c:66
                panic(NULL);
            }
#endif
        }
    }
    if (rom_version < 3) {
1000118a:	2d02      	cmp	r5, #2
1000118c:	d02d      	beq.n	100011ea <__aeabi_double_init+0x86>
/usr/local/share/pico/pico-sdk/src/rp2_common/pico_double/double_init_rom_rp2040.c:71
        // we use the unused entry for SINCOS
        sd_table[SF_TABLE_V3_FSINCOS / 4] = (uintptr_t) double_table_shim_on_use_helper;
    }

    sf_clz_func = rom_func_lookup(ROM_FUNC_CLZ32);
1000118e:	481b      	ldr	r0, [pc, #108]	@ (100011fc <__aeabi_double_init+0x98>)
10001190:	f7ff fe48 	bl	10000e24 <rom_func_lookup>
10001194:	4b1a      	ldr	r3, [pc, #104]	@ (10001200 <__aeabi_double_init+0x9c>)
10001196:	6018      	str	r0, [r3, #0]
/usr/local/share/pico/pico-sdk/src/rp2_common/pico_double/double_init_rom_rp2040.c:72
}
10001198:	bd70      	pop	{r4, r5, r6, pc}
1000119a:	4b1a      	ldr	r3, [pc, #104]	@ (10001204 <__aeabi_double_init+0xa0>)
1000119c:	4c16      	ldr	r4, [pc, #88]	@ (100011f8 <__aeabi_double_init+0x94>)
/usr/local/share/pico/pico-sdk/src/rp2_common/pico_double/double_init_rom_rp2040.c:68
        sd_table[SF_TABLE_V3_FSINCOS / 4] = (uintptr_t) double_table_shim_on_use_helper;
1000119e:	64a3      	str	r3, [r4, #72]	@ 0x48
100011a0:	e7f5      	b.n	1000118e <__aeabi_double_init+0x2a>
100011a2:	4b18      	ldr	r3, [pc, #96]	@ (10001204 <__aeabi_double_init+0xa0>)
/usr/local/share/pico/pico-sdk/src/rp2_common/pico_double/double_init_rom_rp2040.c:37
            sd_table[i] = (uintptr_t)double_table_shim_on_use_helper;
100011a4:	4c14      	ldr	r4, [pc, #80]	@ (100011f8 <__aeabi_double_init+0x94>)
100011a6:	6023      	str	r3, [r4, #0]
100011a8:	6063      	str	r3, [r4, #4]
100011aa:	60a3      	str	r3, [r4, #8]
100011ac:	60e3      	str	r3, [r4, #12]
100011ae:	6123      	str	r3, [r4, #16]
100011b0:	6163      	str	r3, [r4, #20]
100011b2:	61a3      	str	r3, [r4, #24]
100011b4:	61e3      	str	r3, [r4, #28]
100011b6:	6223      	str	r3, [r4, #32]
100011b8:	6263      	str	r3, [r4, #36]	@ 0x24
100011ba:	62a3      	str	r3, [r4, #40]	@ 0x28
100011bc:	62e3      	str	r3, [r4, #44]	@ 0x2c
100011be:	6323      	str	r3, [r4, #48]	@ 0x30
100011c0:	6363      	str	r3, [r4, #52]	@ 0x34
100011c2:	63a3      	str	r3, [r4, #56]	@ 0x38
100011c4:	63e3      	str	r3, [r4, #60]	@ 0x3c
100011c6:	6423      	str	r3, [r4, #64]	@ 0x40
100011c8:	6463      	str	r3, [r4, #68]	@ 0x44
100011ca:	64a3      	str	r3, [r4, #72]	@ 0x48
100011cc:	64e3      	str	r3, [r4, #76]	@ 0x4c
100011ce:	6523      	str	r3, [r4, #80]	@ 0x50
100011d0:	6563      	str	r3, [r4, #84]	@ 0x54
100011d2:	65a3      	str	r3, [r4, #88]	@ 0x58
100011d4:	65e3      	str	r3, [r4, #92]	@ 0x5c
100011d6:	6623      	str	r3, [r4, #96]	@ 0x60
100011d8:	6663      	str	r3, [r4, #100]	@ 0x64
100011da:	66a3      	str	r3, [r4, #104]	@ 0x68
100011dc:	66e3      	str	r3, [r4, #108]	@ 0x6c
100011de:	6723      	str	r3, [r4, #112]	@ 0x70
100011e0:	6763      	str	r3, [r4, #116]	@ 0x74
100011e2:	67a3      	str	r3, [r4, #120]	@ 0x78
100011e4:	67e3      	str	r3, [r4, #124]	@ 0x7c
/usr/local/share/pico/pico-sdk/src/rp2_common/pico_double/double_init_rom_rp2040.c:68
        sd_table[SF_TABLE_V3_FSINCOS / 4] = (uintptr_t) double_table_shim_on_use_helper;
100011e6:	64a3      	str	r3, [r4, #72]	@ 0x48
100011e8:	e7d1      	b.n	1000118e <__aeabi_double_init+0x2a>
100011ea:	4b06      	ldr	r3, [pc, #24]	@ (10001204 <__aeabi_double_init+0xa0>)
100011ec:	64a3      	str	r3, [r4, #72]	@ 0x48
100011ee:	e7ce      	b.n	1000118e <__aeabi_double_init+0x2a>
100011f0:	00004453 	.word	0x00004453
100011f4:	00004653 	.word	0x00004653
100011f8:	20000368 	.word	0x20000368
100011fc:	0000334c 	.word	0x0000334c
10001200:	200005cc 	.word	0x200005cc
10001204:	10001209 	.word	0x10001209

10001208 <double_table_shim_on_use_helper>:
double_table_shim_on_use_helper():
/usr/local/share/pico/pico-sdk/src/rp2_common/pico_double/double_v1_rom_shim_rp2040.S:22
#endif
.endm

double_section double_table_shim_on_use_helper
regular_func double_table_shim_on_use_helper
    push {r0-r2, lr}
10001208:	b507      	push	{r0, r1, r2, lr}
/usr/local/share/pico/pico-sdk/src/rp2_common/pico_double/double_v1_rom_shim_rp2040.S:23
    mov r0, ip
1000120a:	4660      	mov	r0, ip
/usr/local/share/pico/pico-sdk/src/rp2_common/pico_double/double_v1_rom_shim_rp2040.S:31
    cmp r0, #0
    bne 1f
    bkpt #0
#endif
1:
    ldrh r1, [r0]
1000120c:	8801      	ldrh	r1, [r0, #0]
/usr/local/share/pico/pico-sdk/src/rp2_common/pico_double/double_v1_rom_shim_rp2040.S:32
    lsrs r2, r1, #8
1000120e:	0a0a      	lsrs	r2, r1, #8
/usr/local/share/pico/pico-sdk/src/rp2_common/pico_double/double_v1_rom_shim_rp2040.S:33
    adds r0, #2
10001210:	3002      	adds	r0, #2
/usr/local/share/pico/pico-sdk/src/rp2_common/pico_double/double_v1_rom_shim_rp2040.S:34
    cmp r2, #0xdf
10001212:	2adf      	cmp	r2, #223	@ 0xdf
/usr/local/share/pico/pico-sdk/src/rp2_common/pico_double/double_v1_rom_shim_rp2040.S:35
    bne 1b
10001214:	d1fa      	bne.n	1000120c <double_table_shim_on_use_helper+0x4>
/usr/local/share/pico/pico-sdk/src/rp2_common/pico_double/double_v1_rom_shim_rp2040.S:36
    uxtb r1, r1 // r1 holds table offset
10001216:	b2c9      	uxtb	r1, r1
/usr/local/share/pico/pico-sdk/src/rp2_common/pico_double/double_v1_rom_shim_rp2040.S:37
    lsrs r2, r0, #2
10001218:	0882      	lsrs	r2, r0, #2
/usr/local/share/pico/pico-sdk/src/rp2_common/pico_double/double_v1_rom_shim_rp2040.S:38
    bcc 1f
1000121a:	d304      	bcc.n	10001226 <double_table_shim_on_use_helper+0x1e>
/usr/local/share/pico/pico-sdk/src/rp2_common/pico_double/double_v1_rom_shim_rp2040.S:40
    // unaligned
    ldrh r2, [r0, #0]
1000121c:	8802      	ldrh	r2, [r0, #0]
/usr/local/share/pico/pico-sdk/src/rp2_common/pico_double/double_v1_rom_shim_rp2040.S:41
    ldrh r0, [r0, #2]
1000121e:	8840      	ldrh	r0, [r0, #2]
/usr/local/share/pico/pico-sdk/src/rp2_common/pico_double/double_v1_rom_shim_rp2040.S:42
    lsls r0, #16
10001220:	0400      	lsls	r0, r0, #16
/usr/local/share/pico/pico-sdk/src/rp2_common/pico_double/double_v1_rom_shim_rp2040.S:43
    orrs r0, r2
10001222:	4310      	orrs	r0, r2
/usr/local/share/pico/pico-sdk/src/rp2_common/pico_double/double_v1_rom_shim_rp2040.S:44
    b 2f
10001224:	e000      	b.n	10001228 <double_table_shim_on_use_helper+0x20>
/usr/local/share/pico/pico-sdk/src/rp2_common/pico_double/double_v1_rom_shim_rp2040.S:46
1:
    ldr r0, [r0]
10001226:	6800      	ldr	r0, [r0, #0]
/usr/local/share/pico/pico-sdk/src/rp2_common/pico_double/double_v1_rom_shim_rp2040.S:48
2:
    ldr r2, =sd_table
10001228:	4a01      	ldr	r2, [pc, #4]	@ (10001230 <double_table_shim_on_use_helper+0x28>)
/usr/local/share/pico/pico-sdk/src/rp2_common/pico_double/double_v1_rom_shim_rp2040.S:49
    str r0, [r2, r1]
1000122a:	5050      	str	r0, [r2, r1]
/usr/local/share/pico/pico-sdk/src/rp2_common/pico_double/double_v1_rom_shim_rp2040.S:50
    str r0, [sp, #12]
1000122c:	9003      	str	r0, [sp, #12]
/usr/local/share/pico/pico-sdk/src/rp2_common/pico_double/double_v1_rom_shim_rp2040.S:51
    pop {r0-r2, pc}
1000122e:	bd07      	pop	{r0, r1, r2, pc}
/usr/local/share/pico/pico-sdk/src/rp2_common/pico_double/double_v1_rom_shim_rp2040.S:48
    ldr r2, =sd_table
10001230:	20000368 	.word	0x20000368

10001234 <__aeabi_float_init>:
rp2040_rom_version():
/usr/local/share/pico/pico-sdk/src/rp2040/pico_platform/include/pico/platform.h:150
10001234:	2313      	movs	r3, #19
__aeabi_float_init():
/usr/local/share/pico/pico-sdk/src/rp2_common/pico_float/float_init_rom_rp2040.c:22
static __attribute__((noreturn)) void missing_float_func_shim(void) {
    panic("");
}
#endif

void __aeabi_float_init(void) {
10001236:	b510      	push	{r4, lr}
/usr/local/share/pico/pico-sdk/src/rp2_common/pico_float/float_init_rom_rp2040.c:24
    int rom_version = rp2040_rom_version();
    void *rom_table = rom_data_lookup(rom_table_code('S', 'F'));
10001238:	4812      	ldr	r0, [pc, #72]	@ (10001284 <__aeabi_float_init+0x50>)
/usr/local/share/pico/pico-sdk/src/rp2_common/pico_float/float_init_rom_rp2040.c:23
    int rom_version = rp2040_rom_version();
1000123a:	781c      	ldrb	r4, [r3, #0]
/usr/local/share/pico/pico-sdk/src/rp2_common/pico_float/float_init_rom_rp2040.c:24
    void *rom_table = rom_data_lookup(rom_table_code('S', 'F'));
1000123c:	f7ff fdfa 	bl	10000e34 <rom_data_lookup>
10001240:	0001      	movs	r1, r0
/usr/local/share/pico/pico-sdk/src/rp2_common/pico_float/float_init_rom_rp2040.c:26
#if PICO_FLOAT_SUPPORT_ROM_V1 && PICO_RP2040_B0_SUPPORTED
    if (rom_version == 1) {
10001242:	2c01      	cmp	r4, #1
10001244:	d00a      	beq.n	1000125c <__aeabi_float_init+0x28>
/usr/local/share/pico/pico-sdk/src/rp2_common/pico_float/float_init_rom_rp2040.c:65
        for(uint i=0;i<SF_TABLE_V2_SIZE/4;i++) {
            if (!sf_table[i]) sf_table[i] = (uintptr_t)missing_float_func_shim;
        }
    }
#endif
    if (rom_version >= 2) {
10001246:	dd03      	ble.n	10001250 <__aeabi_float_init+0x1c>
/usr/local/share/pico/pico-sdk/src/rp2_common/pico_float/float_init_rom_rp2040.c:67
        assert(*((uint8_t *)rom_table-2) * 4 >= SF_TABLE_V2_SIZE);
        memcpy(&sf_table, rom_table, SF_TABLE_V2_SIZE);
10001248:	2280      	movs	r2, #128	@ 0x80
1000124a:	480f      	ldr	r0, [pc, #60]	@ (10001288 <__aeabi_float_init+0x54>)
1000124c:	f000 f842 	bl	100012d4 <__wrap___aeabi_memcpy>
/usr/local/share/pico/pico-sdk/src/rp2_common/pico_float/float_init_rom_rp2040.c:69
    }
    sf_clz_func = rom_func_lookup(ROM_FUNC_CLZ32);
10001250:	480e      	ldr	r0, [pc, #56]	@ (1000128c <__aeabi_float_init+0x58>)
10001252:	f7ff fde7 	bl	10000e24 <rom_func_lookup>
10001256:	4b0e      	ldr	r3, [pc, #56]	@ (10001290 <__aeabi_float_init+0x5c>)
10001258:	6018      	str	r0, [r3, #0]
/usr/local/share/pico/pico-sdk/src/rp2_common/pico_float/float_init_rom_rp2040.c:70
}
1000125a:	bd10      	pop	{r4, pc}
/usr/local/share/pico/pico-sdk/src/rp2_common/pico_float/float_init_rom_rp2040.c:27
        memcpy(&sf_table, rom_table, SF_TABLE_V1_SIZE);
1000125c:	4c0a      	ldr	r4, [pc, #40]	@ (10001288 <__aeabi_float_init+0x54>)
1000125e:	2254      	movs	r2, #84	@ 0x54
10001260:	0020      	movs	r0, r4
10001262:	f000 f837 	bl	100012d4 <__wrap___aeabi_memcpy>
/usr/local/share/pico/pico-sdk/src/rp2_common/pico_float/float_init_rom_rp2040.c:51
            sf_table[i] = (uintptr_t)float_table_shim_on_use_helper;
10001266:	4b0b      	ldr	r3, [pc, #44]	@ (10001294 <__aeabi_float_init+0x60>)
10001268:	6563      	str	r3, [r4, #84]	@ 0x54
1000126a:	65a3      	str	r3, [r4, #88]	@ 0x58
1000126c:	65e3      	str	r3, [r4, #92]	@ 0x5c
1000126e:	6623      	str	r3, [r4, #96]	@ 0x60
10001270:	6663      	str	r3, [r4, #100]	@ 0x64
10001272:	66a3      	str	r3, [r4, #104]	@ 0x68
10001274:	66e3      	str	r3, [r4, #108]	@ 0x6c
10001276:	6723      	str	r3, [r4, #112]	@ 0x70
10001278:	6763      	str	r3, [r4, #116]	@ 0x74
1000127a:	67a3      	str	r3, [r4, #120]	@ 0x78
1000127c:	67e3      	str	r3, [r4, #124]	@ 0x7c
/usr/local/share/pico/pico-sdk/src/rp2_common/pico_float/float_init_rom_rp2040.c:54
        sf_table[SF_TABLE_FLOAT2INT/4] = sf_table[SF_TABLE_FLOAT2FIX/4] = (uintptr_t)float_table_shim_on_use_helper;
1000127e:	6223      	str	r3, [r4, #32]
10001280:	61e3      	str	r3, [r4, #28]
/usr/local/share/pico/pico-sdk/src/rp2_common/pico_float/float_init_rom_rp2040.c:65
    if (rom_version >= 2) {
10001282:	e7e5      	b.n	10001250 <__aeabi_float_init+0x1c>
10001284:	00004653 	.word	0x00004653
10001288:	20000468 	.word	0x20000468
1000128c:	0000334c 	.word	0x0000334c
10001290:	200005cc 	.word	0x200005cc
10001294:	10001299 	.word	0x10001299

10001298 <float_table_shim_on_use_helper>:
float_table_shim_on_use_helper():
/usr/local/share/pico/pico-sdk/src/rp2_common/pico_float/float_v1_rom_shim_rp2040.S:28
#endif
.endm

float_section float_table_shim_on_use_helper
regular_func float_table_shim_on_use_helper
    push {r0-r2, lr}
10001298:	b507      	push	{r0, r1, r2, lr}
/usr/local/share/pico/pico-sdk/src/rp2_common/pico_float/float_v1_rom_shim_rp2040.S:29
    mov r0, ip
1000129a:	4660      	mov	r0, ip
/usr/local/share/pico/pico-sdk/src/rp2_common/pico_float/float_v1_rom_shim_rp2040.S:37
    cmp r0, #0
    bne 1f
    bkpt #0
#endif
1:
    ldrh r1, [r0]
1000129c:	8801      	ldrh	r1, [r0, #0]
/usr/local/share/pico/pico-sdk/src/rp2_common/pico_float/float_v1_rom_shim_rp2040.S:38
    lsrs r2, r1, #8
1000129e:	0a0a      	lsrs	r2, r1, #8
/usr/local/share/pico/pico-sdk/src/rp2_common/pico_float/float_v1_rom_shim_rp2040.S:39
    adds r0, #2
100012a0:	3002      	adds	r0, #2
/usr/local/share/pico/pico-sdk/src/rp2_common/pico_float/float_v1_rom_shim_rp2040.S:40
    cmp r2, #0xdf
100012a2:	2adf      	cmp	r2, #223	@ 0xdf
/usr/local/share/pico/pico-sdk/src/rp2_common/pico_float/float_v1_rom_shim_rp2040.S:41
    bne 1b
100012a4:	d1fa      	bne.n	1000129c <float_table_shim_on_use_helper+0x4>
/usr/local/share/pico/pico-sdk/src/rp2_common/pico_float/float_v1_rom_shim_rp2040.S:42
    uxtb r1, r1 // r1 holds table offset
100012a6:	b2c9      	uxtb	r1, r1
/usr/local/share/pico/pico-sdk/src/rp2_common/pico_float/float_v1_rom_shim_rp2040.S:43
    lsrs r2, r0, #2
100012a8:	0882      	lsrs	r2, r0, #2
/usr/local/share/pico/pico-sdk/src/rp2_common/pico_float/float_v1_rom_shim_rp2040.S:44
    bcc 1f
100012aa:	d304      	bcc.n	100012b6 <float_table_shim_on_use_helper+0x1e>
/usr/local/share/pico/pico-sdk/src/rp2_common/pico_float/float_v1_rom_shim_rp2040.S:46
    // unaligned
    ldrh r2, [r0, #0]
100012ac:	8802      	ldrh	r2, [r0, #0]
/usr/local/share/pico/pico-sdk/src/rp2_common/pico_float/float_v1_rom_shim_rp2040.S:47
    ldrh r0, [r0, #2]
100012ae:	8840      	ldrh	r0, [r0, #2]
/usr/local/share/pico/pico-sdk/src/rp2_common/pico_float/float_v1_rom_shim_rp2040.S:48
    lsls r0, #16
100012b0:	0400      	lsls	r0, r0, #16
/usr/local/share/pico/pico-sdk/src/rp2_common/pico_float/float_v1_rom_shim_rp2040.S:49
    orrs r0, r2
100012b2:	4310      	orrs	r0, r2
/usr/local/share/pico/pico-sdk/src/rp2_common/pico_float/float_v1_rom_shim_rp2040.S:50
    b 2f
100012b4:	e000      	b.n	100012b8 <float_table_shim_on_use_helper+0x20>
/usr/local/share/pico/pico-sdk/src/rp2_common/pico_float/float_v1_rom_shim_rp2040.S:52
1:
    ldr r0, [r0]
100012b6:	6800      	ldr	r0, [r0, #0]
/usr/local/share/pico/pico-sdk/src/rp2_common/pico_float/float_v1_rom_shim_rp2040.S:54
2:
    ldr r2, =sf_table
100012b8:	4a01      	ldr	r2, [pc, #4]	@ (100012c0 <float_table_shim_on_use_helper+0x28>)
/usr/local/share/pico/pico-sdk/src/rp2_common/pico_float/float_v1_rom_shim_rp2040.S:55
    str r0, [r2, r1]
100012ba:	5050      	str	r0, [r2, r1]
/usr/local/share/pico/pico-sdk/src/rp2_common/pico_float/float_v1_rom_shim_rp2040.S:56
    str r0, [sp, #12]
100012bc:	9003      	str	r0, [sp, #12]
/usr/local/share/pico/pico-sdk/src/rp2_common/pico_float/float_v1_rom_shim_rp2040.S:57
    pop {r0-r2, pc}
100012be:	bd07      	pop	{r0, r1, r2, pc}
/usr/local/share/pico/pico-sdk/src/rp2_common/pico_float/float_v1_rom_shim_rp2040.S:54
    ldr r2, =sf_table
100012c0:	20000468 	.word	0x20000468

100012c4 <__aeabi_mem_init>:
__aeabi_mem_init():
/usr/local/share/pico/pico-sdk/src/rp2_common/pico_mem_ops/mem_ops_aeabi.S:45
    .word ROM_FUNC_MEMCPY44
aeabi_mem_funcs_end:

.section .text
regular_func __aeabi_mem_init
    ldr r0, =aeabi_mem_funcs
100012c4:	4801      	ldr	r0, [pc, #4]	@ (100012cc <__aeabi_mem_init+0x8>)
/usr/local/share/pico/pico-sdk/src/rp2_common/pico_mem_ops/mem_ops_aeabi.S:46
    movs r1, #MEM_FUNC_COUNT
100012c6:	2104      	movs	r1, #4
/usr/local/share/pico/pico-sdk/src/rp2_common/pico_mem_ops/mem_ops_aeabi.S:47
    ldr r3, =rom_funcs_lookup
100012c8:	4b01      	ldr	r3, [pc, #4]	@ (100012d0 <__aeabi_mem_init+0xc>)
/usr/local/share/pico/pico-sdk/src/rp2_common/pico_mem_ops/mem_ops_aeabi.S:48
    bx r3
100012ca:	4718      	bx	r3
/usr/local/share/pico/pico-sdk/src/rp2_common/pico_mem_ops/mem_ops_aeabi.S:45
    ldr r0, =aeabi_mem_funcs
100012cc:	200001d0 	.word	0x200001d0
/usr/local/share/pico/pico-sdk/src/rp2_common/pico_mem_ops/mem_ops_aeabi.S:47
    ldr r3, =rom_funcs_lookup
100012d0:	10000e45 	.word	0x10000e45

100012d4 <__wrap___aeabi_memcpy>:
__wrap___aeabi_memcpy():
/usr/local/share/pico/pico-sdk/src/rp2_common/pico_mem_ops/mem_ops_aeabi.S:95
    bx r3

mem_section memcpy
wrapper_func __aeabi_memcpy
wrapper_func memcpy
    ldr r3, =aeabi_mem_funcs
100012d4:	4b01      	ldr	r3, [pc, #4]	@ (100012dc <__wrap___aeabi_memcpy+0x8>)
/usr/local/share/pico/pico-sdk/src/rp2_common/pico_mem_ops/mem_ops_aeabi.S:96
    ldr r3, [r3, #MEMCPY]
100012d6:	685b      	ldr	r3, [r3, #4]
/usr/local/share/pico/pico-sdk/src/rp2_common/pico_mem_ops/mem_ops_aeabi.S:97
    bx r3
100012d8:	4718      	bx	r3
100012da:	0000      	.short	0x0000
/usr/local/share/pico/pico-sdk/src/rp2_common/pico_mem_ops/mem_ops_aeabi.S:95
    ldr r3, =aeabi_mem_funcs
100012dc:	200001d0 	.word	0x200001d0

100012e0 <_out_char>:
_out_char():
/usr/local/share/pico/pico-sdk/src/rp2_common/pico_printf/printf.c:913
static void _putchar(char character) {
    putchar(character);
}

// internal _putchar wrapper
static inline void _out_char(char character, void *buffer, size_t idx, size_t maxlen) {
100012e0:	b510      	push	{r4, lr}
/usr/local/share/pico/pico-sdk/src/rp2_common/pico_printf/printf.c:917
    (void) buffer;
    (void) idx;
    (void) maxlen;
    if (character) {
100012e2:	2800      	cmp	r0, #0
100012e4:	d100      	bne.n	100012e8 <_out_char+0x8>
/usr/local/share/pico/pico-sdk/src/rp2_common/pico_printf/printf.c:920
        _putchar(character);
    }
}
100012e6:	bd10      	pop	{r4, pc}
_putchar():
/usr/local/share/pico/pico-sdk/src/rp2_common/pico_printf/printf.c:909
    putchar(character);
100012e8:	f000 f922 	bl	10001530 <__wrap_putchar>
_out_char():
/usr/local/share/pico/pico-sdk/src/rp2_common/pico_printf/printf.c:920
}
100012ec:	e7fb      	b.n	100012e6 <_out_char+0x6>
100012ee:	46c0      	nop			@ (mov r8, r8)

100012f0 <weak_raw_vprintf>:
weak_raw_vprintf():
/usr/local/share/pico/pico-sdk/src/rp2_common/pico_printf/printf.c:930
    bool rc = weak_raw_vprintf(fmt, va);
    va_end(va);
    return rc;
}

bool weak_raw_vprintf(const char *fmt, va_list args) {
100012f0:	b510      	push	{r4, lr}
/usr/local/share/pico/pico-sdk/src/rp2_common/pico_printf/printf.c:931
    if (lazy_vsnprintf) {
100012f2:	4a09      	ldr	r2, [pc, #36]	@ (10001318 <weak_raw_vprintf+0x28>)
/usr/local/share/pico/pico-sdk/src/rp2_common/pico_printf/printf.c:930
bool weak_raw_vprintf(const char *fmt, va_list args) {
100012f4:	0003      	movs	r3, r0
/usr/local/share/pico/pico-sdk/src/rp2_common/pico_printf/printf.c:931
    if (lazy_vsnprintf) {
100012f6:	6814      	ldr	r4, [r2, #0]
/usr/local/share/pico/pico-sdk/src/rp2_common/pico_printf/printf.c:930
bool weak_raw_vprintf(const char *fmt, va_list args) {
100012f8:	b084      	sub	sp, #16
/usr/local/share/pico/pico-sdk/src/rp2_common/pico_printf/printf.c:931
    if (lazy_vsnprintf) {
100012fa:	2c00      	cmp	r4, #0
100012fc:	d008      	beq.n	10001310 <weak_raw_vprintf+0x20>
/usr/local/share/pico/pico-sdk/src/rp2_common/pico_printf/printf.c:933
        char buffer[1];
        lazy_vsnprintf(_out_char, buffer, (size_t) -1, fmt, args);
100012fe:	2201      	movs	r2, #1
10001300:	9100      	str	r1, [sp, #0]
10001302:	4806      	ldr	r0, [pc, #24]	@ (1000131c <weak_raw_vprintf+0x2c>)
10001304:	4252      	negs	r2, r2
10001306:	a903      	add	r1, sp, #12
10001308:	47a0      	blx	r4
/usr/local/share/pico/pico-sdk/src/rp2_common/pico_printf/printf.c:934
        return true;
1000130a:	2001      	movs	r0, #1
/usr/local/share/pico/pico-sdk/src/rp2_common/pico_printf/printf.c:939 (discriminator 1)
    } else {
        puts(fmt);
        return false;
    }
}
1000130c:	b004      	add	sp, #16
1000130e:	bd10      	pop	{r4, pc}
/usr/local/share/pico/pico-sdk/src/rp2_common/pico_printf/printf.c:936
        puts(fmt);
10001310:	f000 f95a 	bl	100015c8 <__wrap_puts>
/usr/local/share/pico/pico-sdk/src/rp2_common/pico_printf/printf.c:937
        return false;
10001314:	2000      	movs	r0, #0
10001316:	e7f9      	b.n	1000130c <weak_raw_vprintf+0x1c>
10001318:	200005b8 	.word	0x200005b8
1000131c:	100012e1 	.word	0x100012e1

10001320 <_exit>:
__breakpoint():
/usr/local/share/pico/pico-sdk/src/rp2040/pico_platform/include/pico/platform.h:106 (discriminator 1)
    pico_default_asm_volatile ("bkpt #0" : : : "memory");
10001320:	be00      	bkpt	0x0000
10001322:	e7fd      	b.n	10001320 <_exit>

10001324 <exit>:
exit():
/usr/local/share/pico/pico-sdk/src/rp2_common/pico_clib_interface/newlib_interface.c:161
    // note we don't hook this up as it isn't clear if/where it is used, and we don't particularly
    // want to pull in pico_rand. the user can supply their own strong implementation if they need it!
    return -1;
}
// exit is not useful... no desire to pull in __call_exitprocs
void exit(int status) {
10001324:	b510      	push	{r4, lr}
/usr/local/share/pico/pico-sdk/src/rp2_common/pico_clib_interface/newlib_interface.c:162
    _exit(status);
10001326:	f7ff fffb 	bl	10001320 <_exit>
1000132a:	46c0      	nop			@ (mov r8, r8)

1000132c <runtime_init>:
runtime_init():
/usr/local/share/pico/pico-sdk/src/rp2_common/pico_clib_interface/newlib_interface.c:177

    _exit(1);
}
GCC_Pragma("GCC diagnostic pop")

void runtime_init(void) {
1000132c:	b570      	push	{r4, r5, r6, lr}
/usr/local/share/pico/pico-sdk/src/rp2_common/pico_clib_interface/newlib_interface.c:197
    //      which we didn't do in previous SDKs
    //extern void __libc_init_array(void);
    //__libc_init_array();

    // ... so instead just do the __preinit_array
    runtime_run_initializers();
1000132e:	f7ff fdc7 	bl	10000ec0 <runtime_run_initializers>
/usr/local/share/pico/pico-sdk/src/rp2_common/pico_clib_interface/newlib_interface.c:201
    // ... and the __init_array
    extern void (*__init_array_start)(void);
    extern void (*__init_array_end)(void);
    for (void (**p)(void) = &__init_array_start; p < &__init_array_end; ++p) {
10001332:	4d07      	ldr	r5, [pc, #28]	@ (10001350 <runtime_init+0x24>)
10001334:	4e07      	ldr	r6, [pc, #28]	@ (10001354 <runtime_init+0x28>)
10001336:	42b5      	cmp	r5, r6
10001338:	d209      	bcs.n	1000134e <runtime_init+0x22>
1000133a:	2400      	movs	r4, #0
1000133c:	3e01      	subs	r6, #1
1000133e:	1b76      	subs	r6, r6, r5
10001340:	08b6      	lsrs	r6, r6, #2
/usr/local/share/pico/pico-sdk/src/rp2_common/pico_clib_interface/newlib_interface.c:202 (discriminator 3)
        (*p)();
10001342:	cd08      	ldmia	r5!, {r3}
10001344:	4798      	blx	r3
/usr/local/share/pico/pico-sdk/src/rp2_common/pico_clib_interface/newlib_interface.c:201 (discriminator 3)
    for (void (**p)(void) = &__init_array_start; p < &__init_array_end; ++p) {
10001346:	0023      	movs	r3, r4
10001348:	3401      	adds	r4, #1
1000134a:	42b3      	cmp	r3, r6
1000134c:	d1f9      	bne.n	10001342 <runtime_init+0x16>
/usr/local/share/pico/pico-sdk/src/rp2_common/pico_clib_interface/newlib_interface.c:204
    }
1000134e:	bd70      	pop	{r4, r5, r6, pc}
10001350:	100016d4 	.word	0x100016d4
10001354:	100016d8 	.word	0x100016d8

10001358 <stdio_out_chars_no_crlf>:
stdio_out_chars_no_crlf():
/usr/local/share/pico/pico-sdk/src/rp2_common/pico_stdio/stdio.c:59
    return true;
}
static void stdout_serialize_end(void) {
}
#endif
static void stdio_out_chars_no_crlf(stdio_driver_t *driver, const char *s, int len) {
10001358:	0003      	movs	r3, r0
1000135a:	b510      	push	{r4, lr}
1000135c:	0008      	movs	r0, r1
1000135e:	0011      	movs	r1, r2
/usr/local/share/pico/pico-sdk/src/rp2_common/pico_stdio/stdio.c:60
    driver->out_chars(s, len);
10001360:	681b      	ldr	r3, [r3, #0]
10001362:	4798      	blx	r3
/usr/local/share/pico/pico-sdk/src/rp2_common/pico_stdio/stdio.c:61
}
10001364:	bd10      	pop	{r4, pc}
10001366:	46c0      	nop			@ (mov r8, r8)

10001368 <stdio_out_chars_crlf>:
stdio_out_chars_crlf():
/usr/local/share/pico/pico-sdk/src/rp2_common/pico_stdio/stdio.c:63

static void stdio_out_chars_crlf(stdio_driver_t *driver, const char *s, int len) {
10001368:	b5f0      	push	{r4, r5, r6, r7, lr}
1000136a:	4646      	mov	r6, r8
1000136c:	464f      	mov	r7, r9
1000136e:	46d6      	mov	lr, sl
10001370:	b5c0      	push	{r6, r7, lr}
/usr/local/share/pico/pico-sdk/src/rp2_common/pico_stdio/stdio.c:65
#if PICO_STDIO_ENABLE_CRLF_SUPPORT
    if (!driver->crlf_enabled) {
10001372:	7d43      	ldrb	r3, [r0, #21]
/usr/local/share/pico/pico-sdk/src/rp2_common/pico_stdio/stdio.c:63
static void stdio_out_chars_crlf(stdio_driver_t *driver, const char *s, int len) {
10001374:	4680      	mov	r8, r0
10001376:	000e      	movs	r6, r1
10001378:	0017      	movs	r7, r2
/usr/local/share/pico/pico-sdk/src/rp2_common/pico_stdio/stdio.c:65
    if (!driver->crlf_enabled) {
1000137a:	2b00      	cmp	r3, #0
1000137c:	d04b      	beq.n	10001416 <stdio_out_chars_crlf+0xae>
/usr/local/share/pico/pico-sdk/src/rp2_common/pico_stdio/stdio.c:71
        driver->out_chars(s, len);
        return;
    }
    int first_of_chunk = 0;
    static const char crlf_str[] = {'\r', '\n'};
    for (int i = 0; i < len; i++) {
1000137e:	2a00      	cmp	r2, #0
10001380:	dd32      	ble.n	100013e8 <stdio_out_chars_crlf+0x80>
/usr/local/share/pico/pico-sdk/src/rp2_common/pico_stdio/stdio.c:77
        bool prev_char_was_cr = i > 0 ? s[i - 1] == '\r' : driver->last_ended_with_cr;
        if (s[i] == '\n' && !prev_char_was_cr) {
            if (i > first_of_chunk) {
                driver->out_chars(&s[first_of_chunk], i - first_of_chunk);
            }
            driver->out_chars(crlf_str, 2);
10001382:	4b27      	ldr	r3, [pc, #156]	@ (10001420 <stdio_out_chars_crlf+0xb8>)
/usr/local/share/pico/pico-sdk/src/rp2_common/pico_stdio/stdio.c:71
    for (int i = 0; i < len; i++) {
10001384:	2501      	movs	r5, #1
/usr/local/share/pico/pico-sdk/src/rp2_common/pico_stdio/stdio.c:77
            driver->out_chars(crlf_str, 2);
10001386:	469a      	mov	sl, r3
/usr/local/share/pico/pico-sdk/src/rp2_common/pico_stdio/stdio.c:72
        bool prev_char_was_cr = i > 0 ? s[i - 1] == '\r' : driver->last_ended_with_cr;
10001388:	1e4b      	subs	r3, r1, #1
/usr/local/share/pico/pico-sdk/src/rp2_common/pico_stdio/stdio.c:71
    for (int i = 0; i < len; i++) {
1000138a:	2400      	movs	r4, #0
/usr/local/share/pico/pico-sdk/src/rp2_common/pico_stdio/stdio.c:69
    int first_of_chunk = 0;
1000138c:	2000      	movs	r0, #0
/usr/local/share/pico/pico-sdk/src/rp2_common/pico_stdio/stdio.c:72
        bool prev_char_was_cr = i > 0 ? s[i - 1] == '\r' : driver->last_ended_with_cr;
1000138e:	4699      	mov	r9, r3
10001390:	e007      	b.n	100013a2 <stdio_out_chars_crlf+0x3a>
/usr/local/share/pico/pico-sdk/src/rp2_common/pico_stdio/stdio.c:73
        if (s[i] == '\n' && !prev_char_was_cr) {
10001392:	5d33      	ldrb	r3, [r6, r4]
10001394:	2b0a      	cmp	r3, #10
10001396:	d02c      	beq.n	100013f2 <stdio_out_chars_crlf+0x8a>
/usr/local/share/pico/pico-sdk/src/rp2_common/pico_stdio/stdio.c:78
            first_of_chunk = i + 1;
10001398:	002b      	movs	r3, r5
/usr/local/share/pico/pico-sdk/src/rp2_common/pico_stdio/stdio.c:71
    for (int i = 0; i < len; i++) {
1000139a:	3401      	adds	r4, #1
1000139c:	3501      	adds	r5, #1
1000139e:	42bb      	cmp	r3, r7
100013a0:	da13      	bge.n	100013ca <stdio_out_chars_crlf+0x62>
/usr/local/share/pico/pico-sdk/src/rp2_common/pico_stdio/stdio.c:72
        bool prev_char_was_cr = i > 0 ? s[i - 1] == '\r' : driver->last_ended_with_cr;
100013a2:	2c00      	cmp	r4, #0
100013a4:	d1f5      	bne.n	10001392 <stdio_out_chars_crlf+0x2a>
/usr/local/share/pico/pico-sdk/src/rp2_common/pico_stdio/stdio.c:73
        if (s[i] == '\n' && !prev_char_was_cr) {
100013a6:	7833      	ldrb	r3, [r6, #0]
100013a8:	2b0a      	cmp	r3, #10
100013aa:	d1f5      	bne.n	10001398 <stdio_out_chars_crlf+0x30>
100013ac:	4643      	mov	r3, r8
100013ae:	7d1b      	ldrb	r3, [r3, #20]
100013b0:	2b00      	cmp	r3, #0
100013b2:	d1f1      	bne.n	10001398 <stdio_out_chars_crlf+0x30>
/usr/local/share/pico/pico-sdk/src/rp2_common/pico_stdio/stdio.c:77
            driver->out_chars(crlf_str, 2);
100013b4:	4643      	mov	r3, r8
100013b6:	4650      	mov	r0, sl
100013b8:	2102      	movs	r1, #2
100013ba:	681b      	ldr	r3, [r3, #0]
100013bc:	4798      	blx	r3
/usr/local/share/pico/pico-sdk/src/rp2_common/pico_stdio/stdio.c:78
            first_of_chunk = i + 1;
100013be:	0028      	movs	r0, r5
100013c0:	002b      	movs	r3, r5
/usr/local/share/pico/pico-sdk/src/rp2_common/pico_stdio/stdio.c:71
    for (int i = 0; i < len; i++) {
100013c2:	3401      	adds	r4, #1
100013c4:	3501      	adds	r5, #1
100013c6:	42bb      	cmp	r3, r7
100013c8:	dbeb      	blt.n	100013a2 <stdio_out_chars_crlf+0x3a>
/usr/local/share/pico/pico-sdk/src/rp2_common/pico_stdio/stdio.c:81
        }
    }
    if (first_of_chunk < len) {
100013ca:	4287      	cmp	r7, r0
100013cc:	dd04      	ble.n	100013d8 <stdio_out_chars_crlf+0x70>
/usr/local/share/pico/pico-sdk/src/rp2_common/pico_stdio/stdio.c:82
        driver->out_chars(&s[first_of_chunk], len - first_of_chunk);
100013ce:	4643      	mov	r3, r8
100013d0:	1a39      	subs	r1, r7, r0
100013d2:	681b      	ldr	r3, [r3, #0]
100013d4:	1830      	adds	r0, r6, r0
100013d6:	4798      	blx	r3
/usr/local/share/pico/pico-sdk/src/rp2_common/pico_stdio/stdio.c:85
    }
    if (len > 0) {
        driver->last_ended_with_cr = s[len - 1] == '\r';
100013d8:	19f6      	adds	r6, r6, r7
100013da:	3e01      	subs	r6, #1
100013dc:	7833      	ldrb	r3, [r6, #0]
100013de:	3b0d      	subs	r3, #13
100013e0:	425a      	negs	r2, r3
100013e2:	4153      	adcs	r3, r2
100013e4:	4642      	mov	r2, r8
100013e6:	7513      	strb	r3, [r2, #20]
/usr/local/share/pico/pico-sdk/src/rp2_common/pico_stdio/stdio.c:90
    }
#else
    driver->out_chars(s, len);
#endif
}
100013e8:	bce0      	pop	{r5, r6, r7}
100013ea:	46ba      	mov	sl, r7
100013ec:	46b1      	mov	r9, r6
100013ee:	46a8      	mov	r8, r5
100013f0:	bdf0      	pop	{r4, r5, r6, r7, pc}
/usr/local/share/pico/pico-sdk/src/rp2_common/pico_stdio/stdio.c:73
        if (s[i] == '\n' && !prev_char_was_cr) {
100013f2:	464b      	mov	r3, r9
100013f4:	5d1b      	ldrb	r3, [r3, r4]
100013f6:	2b0d      	cmp	r3, #13
100013f8:	d0ce      	beq.n	10001398 <stdio_out_chars_crlf+0x30>
/usr/local/share/pico/pico-sdk/src/rp2_common/pico_stdio/stdio.c:74
            if (i > first_of_chunk) {
100013fa:	42a0      	cmp	r0, r4
100013fc:	dada      	bge.n	100013b4 <stdio_out_chars_crlf+0x4c>
/usr/local/share/pico/pico-sdk/src/rp2_common/pico_stdio/stdio.c:75
                driver->out_chars(&s[first_of_chunk], i - first_of_chunk);
100013fe:	4643      	mov	r3, r8
10001400:	1a21      	subs	r1, r4, r0
10001402:	681b      	ldr	r3, [r3, #0]
10001404:	1830      	adds	r0, r6, r0
10001406:	4798      	blx	r3
/usr/local/share/pico/pico-sdk/src/rp2_common/pico_stdio/stdio.c:77
            driver->out_chars(crlf_str, 2);
10001408:	4643      	mov	r3, r8
1000140a:	4650      	mov	r0, sl
1000140c:	2102      	movs	r1, #2
1000140e:	681b      	ldr	r3, [r3, #0]
10001410:	4798      	blx	r3
/usr/local/share/pico/pico-sdk/src/rp2_common/pico_stdio/stdio.c:78
            first_of_chunk = i + 1;
10001412:	0028      	movs	r0, r5
10001414:	e7d4      	b.n	100013c0 <stdio_out_chars_crlf+0x58>
/usr/local/share/pico/pico-sdk/src/rp2_common/pico_stdio/stdio.c:66
        driver->out_chars(s, len);
10001416:	6803      	ldr	r3, [r0, #0]
10001418:	0011      	movs	r1, r2
1000141a:	0030      	movs	r0, r6
1000141c:	4798      	blx	r3
/usr/local/share/pico/pico-sdk/src/rp2_common/pico_stdio/stdio.c:67
        return;
1000141e:	e7e3      	b.n	100013e8 <stdio_out_chars_crlf+0x80>
10001420:	100017c8 	.word	0x100017c8

10001424 <stdio_put_string>:
stdio_put_string():
/usr/local/share/pico/pico-sdk/src/rp2_common/pico_stdio/stdio.c:92

int stdio_put_string(const char *s, int len, bool newline, bool cr_translation) {
10001424:	b5f0      	push	{r4, r5, r6, r7, lr}
10001426:	46de      	mov	lr, fp
10001428:	4657      	mov	r7, sl
1000142a:	464e      	mov	r6, r9
1000142c:	4645      	mov	r5, r8
1000142e:	b5e0      	push	{r5, r6, r7, lr}
10001430:	b085      	sub	sp, #20
10001432:	0017      	movs	r7, r2
10001434:	001c      	movs	r4, r3
10001436:	0006      	movs	r6, r0
10001438:	000d      	movs	r5, r1
get_absolute_time():
/usr/local/share/pico/pico-sdk/src/common/pico_time/include/pico/time.h:68
    update_us_since_boot(&t, time_us_64());
1000143a:	f7ff fb9d 	bl	10000b78 <time_us_64>
delayed_by_ms():
/usr/local/share/pico/pico-sdk/src/common/pico_time/include/pico/time.h:121
    uint64_t delayed = base + ms * 1000ull;
1000143e:	2300      	movs	r3, #0
10001440:	4a31      	ldr	r2, [pc, #196]	@ (10001508 <stdio_put_string+0xe4>)
10001442:	1812      	adds	r2, r2, r0
10001444:	414b      	adcs	r3, r1
stdout_serialize_begin():
/usr/local/share/pico/pico-sdk/src/rp2_common/pico_stdio/stdio.c:45
    return mutex_try_enter_block_until(&print_mutex, make_timeout_time_ms(PICO_STDIO_DEADLOCK_TIMEOUT_MS));
10001446:	2180      	movs	r1, #128	@ 0x80
10001448:	0609      	lsls	r1, r1, #24
1000144a:	428b      	cmp	r3, r1
1000144c:	d302      	bcc.n	10001454 <stdio_put_string+0x30>
1000144e:	2201      	movs	r2, #1
10001450:	4b2e      	ldr	r3, [pc, #184]	@ (1000150c <stdio_put_string+0xe8>)
10001452:	4252      	negs	r2, r2
10001454:	492e      	ldr	r1, [pc, #184]	@ (10001510 <stdio_put_string+0xec>)
10001456:	0008      	movs	r0, r1
10001458:	468a      	mov	sl, r1
1000145a:	f000 f915 	bl	10001688 <__mutex_try_enter_block_until_veneer>
1000145e:	9001      	str	r0, [sp, #4]
stdio_put_string():
/usr/local/share/pico/pico-sdk/src/rp2_common/pico_stdio/stdio.c:99
    if (!serialized) {
#if PICO_STDIO_IGNORE_NESTED_STDOUT
        return 0;
#endif
    }
    if (len == -1) len = (int)strlen(s);
10001460:	1c6b      	adds	r3, r5, #1
10001462:	d103      	bne.n	1000146c <stdio_put_string+0x48>
/usr/local/share/pico/pico-sdk/src/rp2_common/pico_stdio/stdio.c:99 (discriminator 1)
10001464:	0030      	movs	r0, r6
10001466:	f000 f8cf 	bl	10001608 <strlen>
1000146a:	0005      	movs	r5, r0
/usr/local/share/pico/pico-sdk/src/rp2_common/pico_stdio/stdio.c:100
    void (*out_func)(stdio_driver_t *, const char *, int) = cr_translation ? stdio_out_chars_crlf : stdio_out_chars_no_crlf;
1000146c:	2c00      	cmp	r4, #0
1000146e:	d026      	beq.n	100014be <stdio_put_string+0x9a>
10001470:	4b28      	ldr	r3, [pc, #160]	@ (10001514 <stdio_put_string+0xf0>)
10001472:	4698      	mov	r8, r3
/usr/local/share/pico/pico-sdk/src/rp2_common/pico_stdio/stdio.c:101 (discriminator 4)
    for (stdio_driver_t *driver = drivers; driver; driver = driver->next) {
10001474:	4b28      	ldr	r3, [pc, #160]	@ (10001518 <stdio_put_string+0xf4>)
10001476:	681c      	ldr	r4, [r3, #0]
10001478:	2c00      	cmp	r4, #0
1000147a:	d015      	beq.n	100014a8 <stdio_put_string+0x84>
1000147c:	2f00      	cmp	r7, #0
1000147e:	d121      	bne.n	100014c4 <stdio_put_string+0xa0>
/usr/local/share/pico/pico-sdk/src/rp2_common/pico_stdio/stdio.c:103
        if (!driver->out_chars) continue;
        if (filter && filter != driver) continue;
10001480:	4f26      	ldr	r7, [pc, #152]	@ (1000151c <stdio_put_string+0xf8>)
10001482:	e002      	b.n	1000148a <stdio_put_string+0x66>
/usr/local/share/pico/pico-sdk/src/rp2_common/pico_stdio/stdio.c:101
    for (stdio_driver_t *driver = drivers; driver; driver = driver->next) {
10001484:	6924      	ldr	r4, [r4, #16]
10001486:	2c00      	cmp	r4, #0
10001488:	d00e      	beq.n	100014a8 <stdio_put_string+0x84>
/usr/local/share/pico/pico-sdk/src/rp2_common/pico_stdio/stdio.c:102
        if (!driver->out_chars) continue;
1000148a:	6823      	ldr	r3, [r4, #0]
1000148c:	2b00      	cmp	r3, #0
1000148e:	d0f9      	beq.n	10001484 <stdio_put_string+0x60>
/usr/local/share/pico/pico-sdk/src/rp2_common/pico_stdio/stdio.c:103
        if (filter && filter != driver) continue;
10001490:	683b      	ldr	r3, [r7, #0]
10001492:	2b00      	cmp	r3, #0
10001494:	d001      	beq.n	1000149a <stdio_put_string+0x76>
10001496:	42a3      	cmp	r3, r4
10001498:	d1f4      	bne.n	10001484 <stdio_put_string+0x60>
/usr/local/share/pico/pico-sdk/src/rp2_common/pico_stdio/stdio.c:104
        out_func(driver, s, len);
1000149a:	0020      	movs	r0, r4
1000149c:	002a      	movs	r2, r5
1000149e:	0031      	movs	r1, r6
100014a0:	47c0      	blx	r8
/usr/local/share/pico/pico-sdk/src/rp2_common/pico_stdio/stdio.c:101
    for (stdio_driver_t *driver = drivers; driver; driver = driver->next) {
100014a2:	6924      	ldr	r4, [r4, #16]
100014a4:	2c00      	cmp	r4, #0
100014a6:	d1f0      	bne.n	1000148a <stdio_put_string+0x66>
/usr/local/share/pico/pico-sdk/src/rp2_common/pico_stdio/stdio.c:110
        if (newline) {
            const char c = '\n';
            out_func(driver, &c, 1);
        }
    }
    if (serialized) {
100014a8:	9b01      	ldr	r3, [sp, #4]
100014aa:	2b00      	cmp	r3, #0
100014ac:	d128      	bne.n	10001500 <stdio_put_string+0xdc>
/usr/local/share/pico/pico-sdk/src/rp2_common/pico_stdio/stdio.c:114
        stdout_serialize_end();
    }
    return len;
}
100014ae:	0028      	movs	r0, r5
100014b0:	b005      	add	sp, #20
100014b2:	bcf0      	pop	{r4, r5, r6, r7}
100014b4:	46bb      	mov	fp, r7
100014b6:	46b2      	mov	sl, r6
100014b8:	46a9      	mov	r9, r5
100014ba:	46a0      	mov	r8, r4
100014bc:	bdf0      	pop	{r4, r5, r6, r7, pc}
/usr/local/share/pico/pico-sdk/src/rp2_common/pico_stdio/stdio.c:100
    void (*out_func)(stdio_driver_t *, const char *, int) = cr_translation ? stdio_out_chars_crlf : stdio_out_chars_no_crlf;
100014be:	4b18      	ldr	r3, [pc, #96]	@ (10001520 <stdio_put_string+0xfc>)
100014c0:	4698      	mov	r8, r3
100014c2:	e7d7      	b.n	10001474 <stdio_put_string+0x50>
/usr/local/share/pico/pico-sdk/src/rp2_common/pico_stdio/stdio.c:103
        if (filter && filter != driver) continue;
100014c4:	4b15      	ldr	r3, [pc, #84]	@ (1000151c <stdio_put_string+0xf8>)
100014c6:	4699      	mov	r9, r3
/usr/local/share/pico/pico-sdk/src/rp2_common/pico_stdio/stdio.c:106
            const char c = '\n';
100014c8:	ab02      	add	r3, sp, #8
100014ca:	1ddf      	adds	r7, r3, #7
100014cc:	230a      	movs	r3, #10
100014ce:	469b      	mov	fp, r3
100014d0:	e002      	b.n	100014d8 <stdio_put_string+0xb4>
/usr/local/share/pico/pico-sdk/src/rp2_common/pico_stdio/stdio.c:101 (discriminator 2)
    for (stdio_driver_t *driver = drivers; driver; driver = driver->next) {
100014d2:	6924      	ldr	r4, [r4, #16]
100014d4:	2c00      	cmp	r4, #0
100014d6:	d0e7      	beq.n	100014a8 <stdio_put_string+0x84>
/usr/local/share/pico/pico-sdk/src/rp2_common/pico_stdio/stdio.c:102
        if (!driver->out_chars) continue;
100014d8:	6823      	ldr	r3, [r4, #0]
100014da:	2b00      	cmp	r3, #0
100014dc:	d0f9      	beq.n	100014d2 <stdio_put_string+0xae>
/usr/local/share/pico/pico-sdk/src/rp2_common/pico_stdio/stdio.c:103
        if (filter && filter != driver) continue;
100014de:	464b      	mov	r3, r9
100014e0:	681b      	ldr	r3, [r3, #0]
100014e2:	2b00      	cmp	r3, #0
100014e4:	d001      	beq.n	100014ea <stdio_put_string+0xc6>
/usr/local/share/pico/pico-sdk/src/rp2_common/pico_stdio/stdio.c:103 (discriminator 1)
100014e6:	42a3      	cmp	r3, r4
100014e8:	d1f3      	bne.n	100014d2 <stdio_put_string+0xae>
/usr/local/share/pico/pico-sdk/src/rp2_common/pico_stdio/stdio.c:104
        out_func(driver, s, len);
100014ea:	002a      	movs	r2, r5
100014ec:	0031      	movs	r1, r6
100014ee:	0020      	movs	r0, r4
100014f0:	47c0      	blx	r8
/usr/local/share/pico/pico-sdk/src/rp2_common/pico_stdio/stdio.c:106
            const char c = '\n';
100014f2:	465b      	mov	r3, fp
/usr/local/share/pico/pico-sdk/src/rp2_common/pico_stdio/stdio.c:107
            out_func(driver, &c, 1);
100014f4:	2201      	movs	r2, #1
100014f6:	0039      	movs	r1, r7
100014f8:	0020      	movs	r0, r4
/usr/local/share/pico/pico-sdk/src/rp2_common/pico_stdio/stdio.c:106
            const char c = '\n';
100014fa:	703b      	strb	r3, [r7, #0]
/usr/local/share/pico/pico-sdk/src/rp2_common/pico_stdio/stdio.c:107
            out_func(driver, &c, 1);
100014fc:	47c0      	blx	r8
100014fe:	e7e8      	b.n	100014d2 <stdio_put_string+0xae>
stdout_serialize_end():
/usr/local/share/pico/pico-sdk/src/rp2_common/pico_stdio/stdio.c:49
    mutex_exit(&print_mutex);
10001500:	4650      	mov	r0, sl
10001502:	f000 f8b1 	bl	10001668 <__mutex_exit_veneer>
/usr/local/share/pico/pico-sdk/src/rp2_common/pico_stdio/stdio.c:50
}
10001506:	e7d2      	b.n	100014ae <stdio_put_string+0x8a>
10001508:	000f4240 	.word	0x000f4240
1000150c:	7fffffff 	.word	0x7fffffff
10001510:	200001e0 	.word	0x200001e0
10001514:	10001369 	.word	0x10001369
10001518:	200005b0 	.word	0x200005b0
1000151c:	200005b4 	.word	0x200005b4
10001520:	10001359 	.word	0x10001359

10001524 <stdio_init_all>:
stdio_init_all():
/usr/local/share/pico/pico-sdk/src/rp2_common/pico_stdio/stdio.c:200
    }
    buffer->buf[buffer->used++] = c;
}
#endif

bool stdio_init_all(void) {
10001524:	b510      	push	{r4, lr}
/usr/local/share/pico/pico-sdk/src/rp2_common/pico_stdio/stdio.c:206
    // todo add explicit custom, or registered although you can call stdio_enable_driver explicitly anyway
    // These are well known ones

    bool rc = false;
#if LIB_PICO_STDIO_UART
    stdio_uart_init();
10001526:	f000 f86d 	bl	10001604 <stdio_uart_init>
/usr/local/share/pico/pico-sdk/src/rp2_common/pico_stdio/stdio.c:224

#if LIB_PICO_STDIO_USB
    rc |= stdio_usb_init();
#endif
    return rc;
}
1000152a:	2001      	movs	r0, #1
1000152c:	bd10      	pop	{r4, pc}
1000152e:	46c0      	nop			@ (mov r8, r8)

10001530 <__wrap_putchar>:
__wrap_putchar():
/usr/local/share/pico/pico-sdk/src/rp2_common/pico_stdio/stdio.c:302
    if (len < 0) return len;
    assert(len == 1);
    return (uint8_t)buf[0];
}

int PRIMARY_STDIO_FUNC(putchar)(int c) {
10001530:	b5f0      	push	{r4, r5, r6, r7, lr}
10001532:	46ce      	mov	lr, r9
10001534:	4647      	mov	r7, r8
10001536:	b580      	push	{r7, lr}
10001538:	b083      	sub	sp, #12
/usr/local/share/pico/pico-sdk/src/rp2_common/pico_stdio/stdio.c:303
    char cc = (char)c;
1000153a:	466b      	mov	r3, sp
/usr/local/share/pico/pico-sdk/src/rp2_common/pico_stdio/stdio.c:302
int PRIMARY_STDIO_FUNC(putchar)(int c) {
1000153c:	0006      	movs	r6, r0
/usr/local/share/pico/pico-sdk/src/rp2_common/pico_stdio/stdio.c:303
    char cc = (char)c;
1000153e:	1ddd      	adds	r5, r3, #7
10001540:	7028      	strb	r0, [r5, #0]
get_absolute_time():
/usr/local/share/pico/pico-sdk/src/common/pico_time/include/pico/time.h:68
    update_us_since_boot(&t, time_us_64());
10001542:	f7ff fb19 	bl	10000b78 <time_us_64>
delayed_by_ms():
/usr/local/share/pico/pico-sdk/src/common/pico_time/include/pico/time.h:121
    uint64_t delayed = base + ms * 1000ull;
10001546:	2300      	movs	r3, #0
10001548:	4a1a      	ldr	r2, [pc, #104]	@ (100015b4 <__wrap_putchar+0x84>)
1000154a:	1812      	adds	r2, r2, r0
1000154c:	414b      	adcs	r3, r1
stdout_serialize_begin():
/usr/local/share/pico/pico-sdk/src/rp2_common/pico_stdio/stdio.c:45
    return mutex_try_enter_block_until(&print_mutex, make_timeout_time_ms(PICO_STDIO_DEADLOCK_TIMEOUT_MS));
1000154e:	2180      	movs	r1, #128	@ 0x80
10001550:	0609      	lsls	r1, r1, #24
10001552:	428b      	cmp	r3, r1
10001554:	d302      	bcc.n	1000155c <__wrap_putchar+0x2c>
10001556:	2201      	movs	r2, #1
10001558:	4b17      	ldr	r3, [pc, #92]	@ (100015b8 <__wrap_putchar+0x88>)
1000155a:	4252      	negs	r2, r2
1000155c:	4917      	ldr	r1, [pc, #92]	@ (100015bc <__wrap_putchar+0x8c>)
1000155e:	0008      	movs	r0, r1
10001560:	4688      	mov	r8, r1
10001562:	f000 f891 	bl	10001688 <__mutex_try_enter_block_until_veneer>
stdio_put_string():
/usr/local/share/pico/pico-sdk/src/rp2_common/pico_stdio/stdio.c:101
    for (stdio_driver_t *driver = drivers; driver; driver = driver->next) {
10001566:	4b16      	ldr	r3, [pc, #88]	@ (100015c0 <__wrap_putchar+0x90>)
stdout_serialize_begin():
/usr/local/share/pico/pico-sdk/src/rp2_common/pico_stdio/stdio.c:45
    return mutex_try_enter_block_until(&print_mutex, make_timeout_time_ms(PICO_STDIO_DEADLOCK_TIMEOUT_MS));
10001568:	4681      	mov	r9, r0
stdio_put_string():
/usr/local/share/pico/pico-sdk/src/rp2_common/pico_stdio/stdio.c:101
    for (stdio_driver_t *driver = drivers; driver; driver = driver->next) {
1000156a:	681c      	ldr	r4, [r3, #0]
1000156c:	2c00      	cmp	r4, #0
1000156e:	d014      	beq.n	1000159a <__wrap_putchar+0x6a>
/usr/local/share/pico/pico-sdk/src/rp2_common/pico_stdio/stdio.c:103
        if (filter && filter != driver) continue;
10001570:	4f14      	ldr	r7, [pc, #80]	@ (100015c4 <__wrap_putchar+0x94>)
10001572:	e002      	b.n	1000157a <__wrap_putchar+0x4a>
/usr/local/share/pico/pico-sdk/src/rp2_common/pico_stdio/stdio.c:101
    for (stdio_driver_t *driver = drivers; driver; driver = driver->next) {
10001574:	6924      	ldr	r4, [r4, #16]
10001576:	2c00      	cmp	r4, #0
10001578:	d00f      	beq.n	1000159a <__wrap_putchar+0x6a>
/usr/local/share/pico/pico-sdk/src/rp2_common/pico_stdio/stdio.c:102
        if (!driver->out_chars) continue;
1000157a:	6823      	ldr	r3, [r4, #0]
1000157c:	2b00      	cmp	r3, #0
1000157e:	d0f9      	beq.n	10001574 <__wrap_putchar+0x44>
/usr/local/share/pico/pico-sdk/src/rp2_common/pico_stdio/stdio.c:103
        if (filter && filter != driver) continue;
10001580:	683b      	ldr	r3, [r7, #0]
10001582:	2b00      	cmp	r3, #0
10001584:	d001      	beq.n	1000158a <__wrap_putchar+0x5a>
10001586:	42a3      	cmp	r3, r4
10001588:	d1f4      	bne.n	10001574 <__wrap_putchar+0x44>
/usr/local/share/pico/pico-sdk/src/rp2_common/pico_stdio/stdio.c:104
        out_func(driver, s, len);
1000158a:	0020      	movs	r0, r4
1000158c:	2201      	movs	r2, #1
1000158e:	0029      	movs	r1, r5
10001590:	f7ff feea 	bl	10001368 <stdio_out_chars_crlf>
/usr/local/share/pico/pico-sdk/src/rp2_common/pico_stdio/stdio.c:101
    for (stdio_driver_t *driver = drivers; driver; driver = driver->next) {
10001594:	6924      	ldr	r4, [r4, #16]
10001596:	2c00      	cmp	r4, #0
10001598:	d1ef      	bne.n	1000157a <__wrap_putchar+0x4a>
/usr/local/share/pico/pico-sdk/src/rp2_common/pico_stdio/stdio.c:110
    if (serialized) {
1000159a:	464b      	mov	r3, r9
1000159c:	2b00      	cmp	r3, #0
1000159e:	d105      	bne.n	100015ac <__wrap_putchar+0x7c>
__wrap_putchar():
/usr/local/share/pico/pico-sdk/src/rp2_common/pico_stdio/stdio.c:306
    stdio_put_string(&cc, 1, false, true);
    return c;
}
100015a0:	0030      	movs	r0, r6
100015a2:	b003      	add	sp, #12
100015a4:	bcc0      	pop	{r6, r7}
100015a6:	46b9      	mov	r9, r7
100015a8:	46b0      	mov	r8, r6
100015aa:	bdf0      	pop	{r4, r5, r6, r7, pc}
stdout_serialize_end():
/usr/local/share/pico/pico-sdk/src/rp2_common/pico_stdio/stdio.c:49
    mutex_exit(&print_mutex);
100015ac:	4640      	mov	r0, r8
100015ae:	f000 f85b 	bl	10001668 <__mutex_exit_veneer>
/usr/local/share/pico/pico-sdk/src/rp2_common/pico_stdio/stdio.c:50
}
100015b2:	e7f5      	b.n	100015a0 <__wrap_putchar+0x70>
100015b4:	000f4240 	.word	0x000f4240
100015b8:	7fffffff 	.word	0x7fffffff
100015bc:	200001e0 	.word	0x200001e0
100015c0:	200005b0 	.word	0x200005b0
100015c4:	200005b4 	.word	0x200005b4

100015c8 <__wrap_puts>:
__wrap_puts():
/usr/local/share/pico/pico-sdk/src/rp2_common/pico_stdio/stdio.c:308

int PRIMARY_STDIO_FUNC(puts)(const char *s) {
100015c8:	b570      	push	{r4, r5, r6, lr}
100015ca:	0004      	movs	r4, r0
/usr/local/share/pico/pico-sdk/src/rp2_common/pico_stdio/stdio.c:309
    int len = (int)strlen(s);
100015cc:	f000 f81c 	bl	10001608 <strlen>
/usr/local/share/pico/pico-sdk/src/rp2_common/pico_stdio/stdio.c:310
    stdio_put_string(s, len, true, true);
100015d0:	2301      	movs	r3, #1
100015d2:	0001      	movs	r1, r0
/usr/local/share/pico/pico-sdk/src/rp2_common/pico_stdio/stdio.c:309
    int len = (int)strlen(s);
100015d4:	0005      	movs	r5, r0
/usr/local/share/pico/pico-sdk/src/rp2_common/pico_stdio/stdio.c:310
    stdio_put_string(s, len, true, true);
100015d6:	2201      	movs	r2, #1
100015d8:	0020      	movs	r0, r4
100015da:	f7ff ff23 	bl	10001424 <stdio_put_string>
stdio_flush():
/usr/local/share/pico/pico-sdk/src/rp2_common/pico_stdio/stdio.c:169
    for (stdio_driver_t *d = drivers; d; d = d->next) {
100015de:	4b08      	ldr	r3, [pc, #32]	@ (10001600 <__wrap_puts+0x38>)
100015e0:	681c      	ldr	r4, [r3, #0]
100015e2:	2c00      	cmp	r4, #0
100015e4:	d006      	beq.n	100015f4 <__wrap_puts+0x2c>
/usr/local/share/pico/pico-sdk/src/rp2_common/pico_stdio/stdio.c:170
        if (d->out_flush) d->out_flush();
100015e6:	6863      	ldr	r3, [r4, #4]
100015e8:	2b00      	cmp	r3, #0
100015ea:	d005      	beq.n	100015f8 <__wrap_puts+0x30>
100015ec:	4798      	blx	r3
/usr/local/share/pico/pico-sdk/src/rp2_common/pico_stdio/stdio.c:169
    for (stdio_driver_t *d = drivers; d; d = d->next) {
100015ee:	6924      	ldr	r4, [r4, #16]
100015f0:	2c00      	cmp	r4, #0
100015f2:	d1f8      	bne.n	100015e6 <__wrap_puts+0x1e>
__wrap_puts():
/usr/local/share/pico/pico-sdk/src/rp2_common/pico_stdio/stdio.c:313
    stdio_flush();
    return len;
}
100015f4:	0028      	movs	r0, r5
100015f6:	bd70      	pop	{r4, r5, r6, pc}
stdio_flush():
/usr/local/share/pico/pico-sdk/src/rp2_common/pico_stdio/stdio.c:169
    for (stdio_driver_t *d = drivers; d; d = d->next) {
100015f8:	6924      	ldr	r4, [r4, #16]
100015fa:	2c00      	cmp	r4, #0
100015fc:	d1f3      	bne.n	100015e6 <__wrap_puts+0x1e>
100015fe:	e7f9      	b.n	100015f4 <__wrap_puts+0x2c>
10001600:	200005b0 	.word	0x200005b0

10001604 <stdio_uart_init>:
stdio_uart_init():
/usr/local/share/pico/pico-sdk/src/rp2_common/pico_stdio_uart/stdio_uart.c:67
    panic("UART baud rate undefined");
#else
    stdio_uart_init_full(uart_default, PICO_DEFAULT_UART_BAUD_RATE, tx_pin, rx_pin);
#endif
#endif
}
10001604:	4770      	bx	lr
10001606:	46c0      	nop			@ (mov r8, r8)

10001608 <strlen>:
strlen():
/home/pere/src/newlib-salsa/build/arm-none-eabi/thumb/v6-m/nofp/newlib/libc/machine/arm/../../../../../../../../../newlib/libc/machine/arm/../../string/strlen.c:53
10001608:	b510      	push	{r4, lr}
/home/pere/src/newlib-salsa/build/arm-none-eabi/thumb/v6-m/nofp/newlib/libc/machine/arm/../../../../../../../../../newlib/libc/machine/arm/../../string/strlen.c:60
1000160a:	0783      	lsls	r3, r0, #30
1000160c:	d00a      	beq.n	10001624 <strlen+0x1c>
1000160e:	0003      	movs	r3, r0
10001610:	2103      	movs	r1, #3
10001612:	e002      	b.n	1000161a <strlen+0x12>
/home/pere/src/newlib-salsa/build/arm-none-eabi/thumb/v6-m/nofp/newlib/libc/machine/arm/../../../../../../../../../newlib/libc/machine/arm/../../string/strlen.c:64
10001614:	3301      	adds	r3, #1
/home/pere/src/newlib-salsa/build/arm-none-eabi/thumb/v6-m/nofp/newlib/libc/machine/arm/../../../../../../../../../newlib/libc/machine/arm/../../string/strlen.c:60
10001616:	420b      	tst	r3, r1
10001618:	d005      	beq.n	10001626 <strlen+0x1e>
/home/pere/src/newlib-salsa/build/arm-none-eabi/thumb/v6-m/nofp/newlib/libc/machine/arm/../../../../../../../../../newlib/libc/machine/arm/../../string/strlen.c:62
1000161a:	781a      	ldrb	r2, [r3, #0]
1000161c:	2a00      	cmp	r2, #0
1000161e:	d1f9      	bne.n	10001614 <strlen+0xc>
/home/pere/src/newlib-salsa/build/arm-none-eabi/thumb/v6-m/nofp/newlib/libc/machine/arm/../../../../../../../../../newlib/libc/machine/arm/../../string/strlen.c:81
10001620:	1a18      	subs	r0, r3, r0
/home/pere/src/newlib-salsa/build/arm-none-eabi/thumb/v6-m/nofp/newlib/libc/machine/arm/../../../../../../../../../newlib/libc/machine/arm/../../string/strlen.c:82
10001622:	bd10      	pop	{r4, pc}
/home/pere/src/newlib-salsa/build/arm-none-eabi/thumb/v6-m/nofp/newlib/libc/machine/arm/../../../../../../../../../newlib/libc/machine/arm/../../string/strlen.c:60
10001624:	0003      	movs	r3, r0
/home/pere/src/newlib-salsa/build/arm-none-eabi/thumb/v6-m/nofp/newlib/libc/machine/arm/../../../../../../../../../newlib/libc/machine/arm/../../string/strlen.c:70
10001626:	6819      	ldr	r1, [r3, #0]
10001628:	4a0c      	ldr	r2, [pc, #48]	@ (1000165c <strlen+0x54>)
1000162a:	4c0d      	ldr	r4, [pc, #52]	@ (10001660 <strlen+0x58>)
1000162c:	188a      	adds	r2, r1, r2
1000162e:	438a      	bics	r2, r1
10001630:	4222      	tst	r2, r4
10001632:	d10f      	bne.n	10001654 <strlen+0x4c>
10001634:	6859      	ldr	r1, [r3, #4]
10001636:	4a09      	ldr	r2, [pc, #36]	@ (1000165c <strlen+0x54>)
/home/pere/src/newlib-salsa/build/arm-none-eabi/thumb/v6-m/nofp/newlib/libc/machine/arm/../../../../../../../../../newlib/libc/machine/arm/../../string/strlen.c:71
10001638:	3304      	adds	r3, #4
/home/pere/src/newlib-salsa/build/arm-none-eabi/thumb/v6-m/nofp/newlib/libc/machine/arm/../../../../../../../../../newlib/libc/machine/arm/../../string/strlen.c:70
1000163a:	188a      	adds	r2, r1, r2
1000163c:	438a      	bics	r2, r1
1000163e:	4222      	tst	r2, r4
10001640:	d108      	bne.n	10001654 <strlen+0x4c>
10001642:	6859      	ldr	r1, [r3, #4]
10001644:	4a05      	ldr	r2, [pc, #20]	@ (1000165c <strlen+0x54>)
/home/pere/src/newlib-salsa/build/arm-none-eabi/thumb/v6-m/nofp/newlib/libc/machine/arm/../../../../../../../../../newlib/libc/machine/arm/../../string/strlen.c:71
10001646:	3304      	adds	r3, #4
/home/pere/src/newlib-salsa/build/arm-none-eabi/thumb/v6-m/nofp/newlib/libc/machine/arm/../../../../../../../../../newlib/libc/machine/arm/../../string/strlen.c:70
10001648:	188a      	adds	r2, r1, r2
1000164a:	438a      	bics	r2, r1
1000164c:	4222      	tst	r2, r4
1000164e:	d0f1      	beq.n	10001634 <strlen+0x2c>
10001650:	e000      	b.n	10001654 <strlen+0x4c>
/home/pere/src/newlib-salsa/build/arm-none-eabi/thumb/v6-m/nofp/newlib/libc/machine/arm/../../../../../../../../../newlib/libc/machine/arm/../../string/strlen.c:80
10001652:	3301      	adds	r3, #1
/home/pere/src/newlib-salsa/build/arm-none-eabi/thumb/v6-m/nofp/newlib/libc/machine/arm/../../../../../../../../../newlib/libc/machine/arm/../../string/strlen.c:79
10001654:	781a      	ldrb	r2, [r3, #0]
10001656:	2a00      	cmp	r2, #0
10001658:	d1fb      	bne.n	10001652 <strlen+0x4a>
1000165a:	e7e1      	b.n	10001620 <strlen+0x18>
1000165c:	fefefeff 	.word	0xfefefeff
10001660:	80808080 	.word	0x80808080

10001664 <_fini>:
_fini():
10001664:	b5f8      	push	{r3, r4, r5, r6, r7, lr}
10001666:	46c0      	nop			@ (mov r8, r8)

10001668 <__mutex_exit_veneer>:
__mutex_exit_veneer():
10001668:	b401      	push	{r0}
1000166a:	4802      	ldr	r0, [pc, #8]	@ (10001674 <__mutex_exit_veneer+0xc>)
1000166c:	4684      	mov	ip, r0
1000166e:	bc01      	pop	{r0}
10001670:	4760      	bx	ip
10001672:	bf00      	nop
10001674:	2000015d 	.word	0x2000015d

10001678 <____aeabi_idiv0_veneer>:
____aeabi_idiv0_veneer():
10001678:	b401      	push	{r0}
1000167a:	4802      	ldr	r0, [pc, #8]	@ (10001684 <____aeabi_idiv0_veneer+0xc>)
1000167c:	4684      	mov	ip, r0
1000167e:	bc01      	pop	{r0}
10001680:	4760      	bx	ip
10001682:	bf00      	nop
10001684:	20000185 	.word	0x20000185

10001688 <__mutex_try_enter_block_until_veneer>:
__mutex_try_enter_block_until_veneer():
10001688:	b401      	push	{r0}
1000168a:	4802      	ldr	r0, [pc, #8]	@ (10001694 <__mutex_try_enter_block_until_veneer+0xc>)
1000168c:	4684      	mov	ip, r0
1000168e:	bc01      	pop	{r0}
10001690:	4760      	bx	ip
10001692:	bf00      	nop
10001694:	200000c1 	.word	0x200000c1

10001698 <__pre_init_runtime_init_early_resets>:
__preinit_array_start():
10001698:	10000ee9                                ....

1000169c <__pre_init_runtime_init_usb_power_down>:
1000169c:	10000f15 10001109 100012c5 10001165     ............e...
100016ac:	10001235                                5...

100016b0 <__pre_init_runtime_init_clocks>:
100016b0:	10001031                                1...

100016b4 <__pre_init_runtime_init_post_clock_resets>:
100016b4:	10000f31                                1...

100016b8 <__pre_init_runtime_init_rp2040_gpio_ie_disable>:
100016b8:	10000f51                                Q...

100016bc <__pre_init_runtime_init_spin_locks_reset>:
100016bc:	10000f65                                e...

100016c0 <__pre_init_runtime_init_mutex>:
100016c0:	100004d1                                ....

100016c4 <__pre_init_runtime_init_install_ram_vector_table>:
100016c4:	10000f6d                                m...

100016c8 <__pre_init_runtime_init_default_alarm_pool>:
100016c8:	10000859                                Y...

100016cc <__pre_init_first_per_core_initializer>:
100016cc:	10000eb1                                ....

100016d0 <__pre_init_runtime_init_per_core_irq_priorities>:
100016d0:	10000425                                %...

100016d4 <__frame_dummy_init_array_entry>:
__preinit_array_end():
100016d4:	100002fd                                ....

Disassembly of section .data:

200000c0 <mutex_try_enter_block_until>:
mutex_try_enter_block_until():
/usr/local/share/pico/pico-sdk/src/common/pico_sync/mutex.c:116
    }
    spin_unlock(mtx->core.spin_lock, save);
    return entered;
}

bool __time_critical_func(mutex_try_enter_block_until)(mutex_t *mtx, absolute_time_t until) {
200000c0:	b5f0      	push	{r4, r5, r6, r7, lr}
200000c2:	46c6      	mov	lr, r8
200000c4:	0015      	movs	r5, r2
200000c6:	b500      	push	{lr}
200000c8:	0004      	movs	r4, r0
200000ca:	001e      	movs	r6, r3
mutex_try_enter():
/usr/local/share/pico/pico-sdk/src/common/pico_sync/mutex.c:104
    uint32_t save = spin_lock_blocking(mtx->core.spin_lock);
200000cc:	6802      	ldr	r2, [r0, #0]
save_and_disable_interrupts():
/usr/local/share/pico/pico-sdk/src/rp2_common/hardware_sync/include/hardware/sync.h:245
    pico_default_asm_volatile (
200000ce:	f3ef 8110 	mrs	r1, PRIMASK
200000d2:	b672      	cpsid	i
spin_lock_unsafe_blocking():
/usr/local/share/pico/pico-sdk/src/rp2_common/hardware_sync_spin_lock/include/hardware/sync/spin_lock.h:265
    while (__builtin_expect(!*lock, 0)) { // read from spinlock register (tries to acquire the lock)
200000d4:	6813      	ldr	r3, [r2, #0]
200000d6:	2b00      	cmp	r3, #0
200000d8:	d0fc      	beq.n	200000d4 <mutex_try_enter_block_until+0x14>
__dmb():
/usr/local/share/pico/pico-sdk/src/rp2_common/hardware_sync/include/hardware/sync.h:136
    pico_default_asm_volatile ("dmb" : : : "memory");
200000da:	f3bf 8f5f 	dmb	sy
mutex_try_enter():
/usr/local/share/pico/pico-sdk/src/common/pico_sync/mutex.c:105
    if (!lock_is_owner_id_valid(mtx->owner)) {
200000de:	2304      	movs	r3, #4
200000e0:	56e3      	ldrsb	r3, [r4, r3]
200000e2:	2b00      	cmp	r3, #0
200000e4:	db2d      	blt.n	20000142 <mutex_try_enter_block_until+0x82>
/usr/local/share/pico/pico-sdk/src/common/pico_sync/mutex.c:112
    spin_unlock(mtx->core.spin_lock, save);
200000e6:	6822      	ldr	r2, [r4, #0]
__dmb():
/usr/local/share/pico/pico-sdk/src/rp2_common/hardware_sync/include/hardware/sync.h:136
200000e8:	f3bf 8f5f 	dmb	sy
spin_unlock_unsafe():
/usr/local/share/pico/pico-sdk/src/rp2_common/hardware_sync_spin_lock/include/hardware/sync/spin_lock.h:289
    *lock = 0; // write to spinlock register (release lock)
200000ec:	2000      	movs	r0, #0
200000ee:	6010      	str	r0, [r2, #0]
restore_interrupts_from_disabled():
/usr/local/share/pico/pico-sdk/src/rp2_common/hardware_sync/include/hardware/sync.h:289
    pico_default_asm_volatile ("msr PRIMASK,%0"::"r" (status) : "memory" );
200000f0:	f381 8810 	msr	PRIMASK, r1
mutex_try_enter_block_until():
/usr/local/share/pico/pico-sdk/src/common/pico_sync/mutex.c:121
    // not using lock_owner_id_t to avoid backwards incompatibility change to mutex_try_enter API
    static_assert(sizeof(lock_owner_id_t) <= 4, "");
    uint32_t owner;
    if (!mutex_try_enter(mtx, &owner)) {
        if ((lock_owner_id_t)owner == lock_get_caller_owner_id()) return false; // deadlock, so we can never own it
200000f4:	22d0      	movs	r2, #208	@ 0xd0
200000f6:	0612      	lsls	r2, r2, #24
200000f8:	7812      	ldrb	r2, [r2, #0]
200000fa:	b252      	sxtb	r2, r2
200000fc:	4690      	mov	r8, r2
200000fe:	429a      	cmp	r2, r3
20000100:	d103      	bne.n	2000010a <mutex_try_enter_block_until+0x4a>
20000102:	2000      	movs	r0, #0
/usr/local/share/pico/pico-sdk/src/common/pico_sync/mutex.c:125
        return mutex_enter_block_until(mtx, until);
    }
    return true;
}
20000104:	bc80      	pop	{r7}
20000106:	46b8      	mov	r8, r7
20000108:	bdf0      	pop	{r4, r5, r6, r7, pc}
spin_unlock_unsafe():
/usr/local/share/pico/pico-sdk/src/rp2_common/hardware_sync_spin_lock/include/hardware/sync/spin_lock.h:289
2000010a:	2700      	movs	r7, #0
2000010c:	e00b      	b.n	20000126 <mutex_try_enter_block_until+0x66>
mutex_enter_block_until():
/usr/local/share/pico/pico-sdk/src/common/pico_sync/mutex.c:175
        if (!lock_is_owner_id_valid(mtx->owner)) {
            mtx->owner = caller;
            spin_unlock(mtx->core.spin_lock, save);
            return true;
        } else {
            if (lock_internal_spin_unlock_with_best_effort_wait_or_timeout(&mtx->core, save, until)) {
2000010e:	6823      	ldr	r3, [r4, #0]
__dmb():
/usr/local/share/pico/pico-sdk/src/rp2_common/hardware_sync/include/hardware/sync.h:136
    pico_default_asm_volatile ("dmb" : : : "memory");
20000110:	f3bf 8f5f 	dmb	sy
spin_unlock_unsafe():
/usr/local/share/pico/pico-sdk/src/rp2_common/hardware_sync_spin_lock/include/hardware/sync/spin_lock.h:289
20000114:	601f      	str	r7, [r3, #0]
restore_interrupts_from_disabled():
/usr/local/share/pico/pico-sdk/src/rp2_common/hardware_sync/include/hardware/sync.h:289
    pico_default_asm_volatile ("msr PRIMASK,%0"::"r" (status) : "memory" );
20000116:	f381 8810 	msr	PRIMASK, r1
mutex_enter_block_until():
/usr/local/share/pico/pico-sdk/src/common/pico_sync/mutex.c:175
2000011a:	0028      	movs	r0, r5
2000011c:	0031      	movs	r1, r6
2000011e:	f000 f833 	bl	20000188 <__best_effort_wfe_or_timeout_veneer>
20000122:	2800      	cmp	r0, #0
20000124:	d1ed      	bne.n	20000102 <mutex_try_enter_block_until+0x42>
/usr/local/share/pico/pico-sdk/src/common/pico_sync/mutex.c:169
        uint32_t save = spin_lock_blocking(mtx->core.spin_lock);
20000126:	6822      	ldr	r2, [r4, #0]
save_and_disable_interrupts():
/usr/local/share/pico/pico-sdk/src/rp2_common/hardware_sync/include/hardware/sync.h:245
    pico_default_asm_volatile (
20000128:	f3ef 8110 	mrs	r1, PRIMASK
2000012c:	b672      	cpsid	i
spin_lock_unsafe_blocking():
/usr/local/share/pico/pico-sdk/src/rp2_common/hardware_sync_spin_lock/include/hardware/sync/spin_lock.h:265
    while (__builtin_expect(!*lock, 0)) { // read from spinlock register (tries to acquire the lock)
2000012e:	6813      	ldr	r3, [r2, #0]
20000130:	2b00      	cmp	r3, #0
20000132:	d0fc      	beq.n	2000012e <mutex_try_enter_block_until+0x6e>
__dmb():
/usr/local/share/pico/pico-sdk/src/rp2_common/hardware_sync/include/hardware/sync.h:136
    pico_default_asm_volatile ("dmb" : : : "memory");
20000134:	f3bf 8f5f 	dmb	sy
mutex_enter_block_until():
/usr/local/share/pico/pico-sdk/src/common/pico_sync/mutex.c:170
        if (!lock_is_owner_id_valid(mtx->owner)) {
20000138:	7923      	ldrb	r3, [r4, #4]
2000013a:	2b7f      	cmp	r3, #127	@ 0x7f
2000013c:	d9e7      	bls.n	2000010e <mutex_try_enter_block_until+0x4e>
/usr/local/share/pico/pico-sdk/src/common/pico_sync/mutex.c:171
            mtx->owner = caller;
2000013e:	4643      	mov	r3, r8
20000140:	e002      	b.n	20000148 <mutex_try_enter_block_until+0x88>
get_core_num():
/usr/local/share/pico/pico-sdk/src/rp2040/pico_platform/include/pico/platform.h:115
    return (*(uint32_t *) (SIO_BASE + SIO_CPUID_OFFSET));
20000142:	23d0      	movs	r3, #208	@ 0xd0
20000144:	061b      	lsls	r3, r3, #24
mutex_try_enter():
/usr/local/share/pico/pico-sdk/src/common/pico_sync/mutex.c:106
        mtx->owner = lock_get_caller_owner_id();
20000146:	681b      	ldr	r3, [r3, #0]
mutex_enter_block_until():
/usr/local/share/pico/pico-sdk/src/common/pico_sync/mutex.c:171
            mtx->owner = caller;
20000148:	7123      	strb	r3, [r4, #4]
/usr/local/share/pico/pico-sdk/src/common/pico_sync/mutex.c:172
            spin_unlock(mtx->core.spin_lock, save);
2000014a:	6823      	ldr	r3, [r4, #0]
__dmb():
/usr/local/share/pico/pico-sdk/src/rp2_common/hardware_sync/include/hardware/sync.h:136
2000014c:	f3bf 8f5f 	dmb	sy
spin_unlock_unsafe():
/usr/local/share/pico/pico-sdk/src/rp2_common/hardware_sync_spin_lock/include/hardware/sync/spin_lock.h:289
    *lock = 0; // write to spinlock register (release lock)
20000150:	2200      	movs	r2, #0
20000152:	601a      	str	r2, [r3, #0]
restore_interrupts_from_disabled():
/usr/local/share/pico/pico-sdk/src/rp2_common/hardware_sync/include/hardware/sync.h:289
    pico_default_asm_volatile ("msr PRIMASK,%0"::"r" (status) : "memory" );
20000154:	f381 8810 	msr	PRIMASK, r1
mutex_enter_block_until():
/usr/local/share/pico/pico-sdk/src/common/pico_sync/mutex.c:173
            return true;
20000158:	2001      	movs	r0, #1
2000015a:	e7d3      	b.n	20000104 <mutex_try_enter_block_until+0x44>

2000015c <mutex_exit>:
mutex_exit():
/usr/local/share/pico/pico-sdk/src/common/pico_sync/mutex.c:212
    if (mtx->recursive) {
        recursive_mutex_exit(mtx);
        return;
    }
#endif
    uint32_t save = spin_lock_blocking(mtx->core.spin_lock);
2000015c:	6802      	ldr	r2, [r0, #0]
save_and_disable_interrupts():
/usr/local/share/pico/pico-sdk/src/rp2_common/hardware_sync/include/hardware/sync.h:245
    pico_default_asm_volatile (
2000015e:	f3ef 8110 	mrs	r1, PRIMASK
20000162:	b672      	cpsid	i
spin_lock_unsafe_blocking():
/usr/local/share/pico/pico-sdk/src/rp2_common/hardware_sync_spin_lock/include/hardware/sync/spin_lock.h:265
    while (__builtin_expect(!*lock, 0)) { // read from spinlock register (tries to acquire the lock)
20000164:	6813      	ldr	r3, [r2, #0]
20000166:	2b00      	cmp	r3, #0
20000168:	d0fc      	beq.n	20000164 <mutex_exit+0x8>
__dmb():
/usr/local/share/pico/pico-sdk/src/rp2_common/hardware_sync/include/hardware/sync.h:136
    pico_default_asm_volatile ("dmb" : : : "memory");
2000016a:	f3bf 8f5f 	dmb	sy
mutex_exit():
/usr/local/share/pico/pico-sdk/src/common/pico_sync/mutex.c:214
    assert(lock_is_owner_id_valid(mtx->owner));
    mtx->owner = LOCK_INVALID_OWNER_ID;
2000016e:	23ff      	movs	r3, #255	@ 0xff
20000170:	7103      	strb	r3, [r0, #4]
/usr/local/share/pico/pico-sdk/src/common/pico_sync/mutex.c:215
    lock_internal_spin_unlock_with_notify(&mtx->core, save);
20000172:	6803      	ldr	r3, [r0, #0]
__dmb():
/usr/local/share/pico/pico-sdk/src/rp2_common/hardware_sync/include/hardware/sync.h:136
20000174:	f3bf 8f5f 	dmb	sy
spin_unlock_unsafe():
/usr/local/share/pico/pico-sdk/src/rp2_common/hardware_sync_spin_lock/include/hardware/sync/spin_lock.h:289
    *lock = 0; // write to spinlock register (release lock)
20000178:	2200      	movs	r2, #0
2000017a:	601a      	str	r2, [r3, #0]
restore_interrupts_from_disabled():
/usr/local/share/pico/pico-sdk/src/rp2_common/hardware_sync/include/hardware/sync.h:289
    pico_default_asm_volatile ("msr PRIMASK,%0"::"r" (status) : "memory" );
2000017c:	f381 8810 	msr	PRIMASK, r1
__sev():
/usr/local/share/pico/pico-sdk/src/rp2_common/hardware_sync/include/hardware/sync.h:94
    pico_default_asm_volatile ("sev");
20000180:	bf40      	sev
mutex_exit():
/usr/local/share/pico/pico-sdk/src/common/pico_sync/mutex.c:216
}
20000182:	4770      	bx	lr

20000184 <__aeabi_idiv0>:
__aeabi_ldiv0():
/build/gcc-arm-none-eabi-xyVptX/gcc-arm-none-eabi-12.2.rel1/build/arm-none-eabi/thumb/v6-m/nofp/libgcc/../../../../../../libgcc/config/arm/lib1funcs.S:1466
20000184:	4770      	bx	lr
20000186:	46c0      	nop			@ (mov r8, r8)

20000188 <__best_effort_wfe_or_timeout_veneer>:
__best_effort_wfe_or_timeout_veneer():
20000188:	b401      	push	{r0}
2000018a:	4802      	ldr	r0, [pc, #8]	@ (20000194 <__best_effort_wfe_or_timeout_veneer+0xc>)
2000018c:	4684      	mov	ip, r0
2000018e:	bc01      	pop	{r0}
20000190:	4760      	bx	ip
20000192:	bf00      	nop
20000194:	10000a59 	.word	0x10000a59

20000198 <striped_spin_lock_num>:
20000198:	00000010                                ....

2000019c <default_alarm_pool>:
	...
200001b0:	200001e8 00000000 00000000 00000000     ... ............

200001c0 <aeabi_bits_funcs>:
aeabi_bits_funcs():
200001c0:	00003350 	.word	0x00003350
200001c4:	0000334c 	.word	0x0000334c
200001c8:	00003354 	.word	0x00003354
200001cc:	00003352 	.word	0x00003352

200001d0 <aeabi_bits_funcs_end>:
aeabi_bits_funcs_end():
200001d0:	0000534d 	.word	0x0000534d
200001d4:	0000434d 	.word	0x0000434d
200001d8:	00003453 	.word	0x00003453
200001dc:	00003443 	.word	0x00003443

200001e0 <print_mutex>:
	...
